     VMA      LMA     Size Align Out     In      Symbol
       0        0       94     2 .vec
       0        0       94     2         ./src/smc_gen/r_bsp/mcu/all/start.o:(.text)
       0        0        0     1                 .L0 
       0        0        0     1                 .Ltmp0
       0        0        0     1                 $x
       0        0        0     1                 .L0 
       0        0       94     1                 _PowerON_Reset
       4        4        0     1                 .L0 
       8        8        0     1                 .Lpcrel_hi0
       8        8        0     1                 .L0 
      10       10        0     1                 .L0 
      12       12        0     1                 .L0 
      16       16        0     1                 .L0 
      1a       1a        0     1                 .Lpcrel_hi1
      1a       1a        0     1                 .L0 
      22       22        0     1                 .Lpcrel_hi2
      22       22        0     1                 .L0 
      2a       2a        0     1                 .L0 
      2c       2c        0     1                 .L0 
      2e       2e        0     1                 .L0 
      32       32        0     1                 .Lpcrel_hi3
      32       32        0     1                 .L0 
      3a       3a        0     1                 .Lpcrel_hi4
      3a       3a        0     1                 .L0 
      42       42        0     1                 .Lpcrel_hi5
      42       42        0     1                 .L0 
      4a       4a        0     1                 .L0 
      4e       4e        0     1                 .Lpcrel_hi6
      4e       4e        0     1                 .L0 
      56       56        0     1                 .Lpcrel_hi7
      56       56        0     1                 .L0 
      5e       5e        0     1                 .Lpcrel_hi8
      5e       5e        0     1                 .L0 
      66       66        0     1                 .L0 
      6a       6a        0     1                 .L0 
      6e       6e        0     1                 .Lpcrel_hi9
      6e       6e        0     1                 .L0 
      76       76        0     1                 .L0 
      78       78        0     1                 .Lpcrel_hi10
      78       78        0     1                 .L0 
      80       80        0     1                 .L0 
      82       82        0     1                 .Lweak_atexit
      82       82        0     1                 .L0 
      86       86        0     1                 .L0 
      88       88        0     1                 .L0 
      8a       8a        0     1                 .L0 
      8c       8c        0     1                 .L0 
      90       90        0     1                 .L0 
      94       94        0     1                 .L0 
      c0       c0       cc     4 .vects
      c0       c0       cc     4         ./src/smc_gen/general/r_cg_vect_table.o:(.vects)
      c0       c0        0     1                 $d
      c0       c0       cc     1                 gp_Vectors
     1c0      1c0        4     4 .nvect
     1c0      1c0        4     4         ./src/smc_gen/general/r_cg_vect_table.o:(.nvect)
     1c0      1c0        0     1                 $d
     1c0      1c0        4     1                 gp_ExceptVectors
     400      400        4     4 .option_ofs0
     400      400        4     4         ./src/smc_gen/r_bsp/mcu/r9a02g021/mcu_option_settings.o:(.option_ofs0)
     400      400        0     1                 $d
     400      400        4     1                 __OFS0reg
     404      404        4     4 .option_ofs1
     404      404        4     4         ./src/smc_gen/r_bsp/mcu/r9a02g021/mcu_option_settings.o:(.option_ofs1)
     404      404        0     1                 $d
     404      404        4     1                 __OFS1reg
     408      408       34     4 .option_frp
     408      408       34     4         ./src/smc_gen/r_bsp/mcu/r9a02g021/mcu_option_settings.o:(.option_frp)
     408      408        0     1                 $d
     408      408       34     1                 Option_FPR
     800      800       10     4 .option_osis
     800      800       10     4         ./src/smc_gen/r_bsp/mcu/r9a02g021/mcu_option_settings.o:(.option_osis)
     800      800        0     1                 $d
     800      800       10     1                 Option_OSIS
     810      810        0     1 __mdata = .
     81c      900     2078   256 .text
     81c      900       12     2         ./src/smc_gen/r_bsp/mcu/all/exit.o:(.text)
     81c      900        0     1                 .L0 
     81c      900        0     1                 $x
     81c      900        0     1                 .L0 
     81c      900        0     1                 _exit
     820      904        0     1                 .L0 
     822      906        0     1                 .L0 
     826      90a        0     1                 .L0 
     828      90c        0     1                 .L0 
     82a      90e        0     1                 .L0 
     82e      912        0     1                 .L0 
     82e      912        6     2         ./src/smc_gen/r_bsp/mcu/all/r_bsp_common_llvm.o:(.text)
     82e      912        0     1                 .L0 
     82e      912        0     1                 loop
     82e      912        0     1                 .L0 
     82e      912        0     1                 $x
     82e      912        0     1                 .L0 
     82e      912        0     1                 _delay_wait
     830      914        0     1                 .L0 
     832      916        0     1                 _exit
     832      916        0     1                 .L0 
     832      916        0     1                 .L0 
     834      918        0     1                 .L0 
     834      918       c2     2         ./src/portASM.o:(.text)
     834      918        0     1                 .L0 
     834      918        0     1                 $x
     834      918        0     1                 .L0 
     834      918        0     1                 pxPortInitialiseStack
     836      91a        0     1                 .L0 
     83a      91e        0     1                 .L0 
     83e      922        0     1                 .L0 
     840      924        0     1                 .L0 
     842      926        0     1                 .Lpcrel_hi0
     842      926        0     1                 .L0 
     84a      92e        0     1                 .L0 
     84e      932        0     1                 .L0 
     850      934        0     1                 chip_specific_stack_frame
     850      934        0     1                 .L0 
     850      934        0     1                 .L0 
     854      938        0     1                 .L0 
     856      93a        0     1                 .L0 
     85a      93e        0     1                 .L0 
     85c      940        0     1                 .L0 
     85e      942        0     1                 .Ltmp0
     85e      942        0     1                 .L0 
     862      946        0     1                 .L0 
     866      94a        0     1                 .L0 
     86a      94e        0     1                 .L0 
     86c      950        0     1                 .L0 
     870      954        0     1                 .L0 
     872      956        0     1                 .L0 
     876      95a        0     1                 .L0 
     878      95c        0     1                 .L0 
     87a      95e        0     1                 .L0 
     87c      960        0     1                 .L0 
     87c      960        0     1                 .Lpcrel_hi1
     87c      960        0     1                 .L0 
     87c      960        0     1                 xPortStartFirstTask
     884      968        0     1                 .L0 
     886      96a        0     1                 .L0 
     888      96c        0     1                 .L0 
     88a      96e        0     1                 .L0 
     88c      970        0     1                 .L0 
     890      974        0     1                 .L0 
     892      976        0     1                 .L0 
     894      978        0     1                 .L0 
     896      97a        0     1                 .L0 
     898      97c        0     1                 .L0 
     89a      97e        0     1                 .L0 
     89c      980        0     1                 .L0 
     89e      982        0     1                 .L0 
     8a0      984        0     1                 .L0 
     8a2      986        0     1                 .L0 
     8a4      988        0     1                 .L0 
     8a6      98a        0     1                 .L0 
     8a8      98c        0     1                 .L0 
     8aa      98e        0     1                 .L0 
     8ac      990        0     1                 .L0 
     8ae      992        0     1                 .L0 
     8b0      994        0     1                 .L0 
     8b2      996        0     1                 .L0 
     8b4      998        0     1                 .L0 
     8b6      99a        0     1                 .L0 
     8b8      99c        0     1                 .L0 
     8ba      99e        0     1                 .L0 
     8bc      9a0        0     1                 .L0 
     8be      9a2        0     1                 .L0 
     8c0      9a4        0     1                 .L0 
     8c2      9a6        0     1                 .L0 
     8c4      9a8        0     1                 .Lpcrel_hi2
     8c4      9a8        0     1                 .L0 
     8cc      9b0        0     1                 .L0 
     8d0      9b4        0     1                 .L0 
     8d2      9b6        0     1                 .L0 
     8d4      9b8        0     1                 .L0 
     8d8      9bc        0     1                 .L0 
     8da      9be        0     1                 .L0 
     8da      9be        0     1                 .L0 
     8da      9be        0     1                 freertos_risc_v_application_exception_handler
     8de      9c2        0     1                 .L0 
     8e2      9c6        0     1                 .L0 
     8e6      9ca        0     1                 .L0 
     8e6      9ca        0     1                 .L0 
     8e8      9cc        0     1                 .L0 
     8e8      9cc        0     1                 .L0 
     8e8      9cc        0     1                 freertos_risc_v_application_interrupt_handler
     8ec      9d0        0     1                 .L0 
     8f0      9d4        0     1                 .L0 
     8f4      9d8        0     1                 .L0 
     8f4      9d8        0     1                 .L0 
     8f6      9da        0     1                 .L0 
     8f6      9da      11c     2         ./src/smc_gen/r_bsp/mcu/r9a02g021/mcu_clocks.o:(.text.mcu_clock_setup)
     8f6      9da        0     1                 .L0 
     8f6      9da        0     1                 .L0 
     8f6      9da        0     1                 $x
     8f6      9da        0     1                 .L0 
     8f6      9da      11c     1                 mcu_clock_setup
     90c      9f0        0     1                 .L0 
     90c      9f0        0     1                 .L0 
     912      9f6        0     1                 .L0 
     912      9f6        0     1                 .L0 
     916      9fa        0     1                 .L0 
     916      9fa        0     1                 .L0 
     91a      9fe        0     1                 .L0 
     91c      a00        0     1                 .L0 
     920      a04        0     1                 .L0 
     922      a06        0     1                 .L0 
     922      a06        0     1                 .L0 
     92a      a0e        0     1                 .L0 
     92a      a0e        0     1                 .L0 
     932      a16        0     1                 .L0 
     936      a1a        0     1                 .L0 
     936      a1a        0     1                 .L0 
     93e      a22        0     1                 .L0 
     93e      a22        0     1                 .L0 
     93e      a22        0     1                 .L0 
     942      a26        0     1                 .L0 
     942      a26        0     1                 .L0 
     94c      a30        0     1                 .L0 
     94e      a32        0     1                 .L0 
     952      a36        0     1                 .L0 
     956      a3a        0     1                 .L0 
     95a      a3e        0     1                 .L0 
     95a      a3e        0     1                 .L0 
     95e      a42        0     1                 .L0 
     95e      a42        0     1                 .L0 
     966      a4a        0     1                 .L0 
     96a      a4e        0     1                 .L0 
     96c      a50        0     1                 .L0 
     96e      a52        0     1                 .L0 
     970      a54        0     1                 .L0 
     974      a58        0     1                 .L0 
     974      a58        0     1                 .L0 
     97a      a5e        0     1                 .L0 
     97c      a60        0     1                 .L0 
     984      a68        0     1                 .L0 
     98a      a6e        0     1                 .L0 
     98a      a6e        0     1                 .L0 
     98e      a72        0     1                 .L0 
     992      a76        0     1                 .L0 
     996      a7a        0     1                 .L0 
     9a0      a84        0     1                 .L0 
     9a0      a84        0     1                 .L0 
     9a0      a84        0     1                 .L0 
     9a2      a86        0     1                 .L0 
     9ae      a92        0     1                 .L0 
     9b6      a9a        0     1                 .L0 
     9b6      a9a        0     1                 .L0 
     9ba      a9e        0     1                 .L0 
     9c0      aa4        0     1                 .L0 
     9c0      aa4        0     1                 .L0 
     9c8      aac        0     1                 .L0 
     9cc      ab0        0     1                 .L0 
     9cc      ab0        0     1                 .L0 
     9d0      ab4        0     1                 .L0 
     9d0      ab4        0     1                 .L0 
     9d4      ab8        0     1                 .L0 
     9d6      aba        0     1                 .L0 
     9da      abe        0     1                 .L0 
     9dc      ac0        0     1                 .L0 
     9dc      ac0        0     1                 .L0 
     9e4      ac8        0     1                 .L0 
     9e4      ac8        0     1                 .L0 
     9ec      ad0        0     1                 .L0 
     9f0      ad4        0     1                 .L0 
     9f0      ad4        0     1                 .L0 
     9f8      adc        0     1                 .L0 
     9f8      adc        0     1                 .L0 
     9f8      adc        0     1                 .L0 
     9fa      ade        0     1                 .L0 
     9fc      ae0        0     1                 .L0 
     a00      ae4        0     1                 .L0 
     a0e      af2        0     1                 .L0 
     a0e      af2        0     1                 .L0 
     a12      af6        0     1                 .L0 
     a12      af6        0     1                 .L0 
     a12      af6       32     2         ./src/smc_gen/r_bsp/mcu/r9a02g021/mcu_clocks.o:(.text.get_iclk_freq_hz)
     a12      af6        0     1                 .L0 
     a12      af6        0     1                 .L0 
     a12      af6        0     1                 $x
     a12      af6        0     1                 .L0 
     a12      af6       32     1                 get_iclk_freq_hz
     a16      afa        0     1                 .L0 
     a1c      b00        0     1                 .L0 
     a1c      b00        0     1                 .L0 
     a30      b14        0     1                 .L0 
     a30      b14        0     1                 .L0 
     a30      b14        0     1                 .L0 
     a38      b1c        0     1                 .L0 
     a38      b1c        0     1                 .L0 
     a38      b1c        0     1                 .L0 
     a3e      b22        0     1                 .L0 
     a42      b26        0     1                 .L0 
     a44      b28        0     1                 .L0 
     a44      b28        0     1                 .L0 
     a44      b28      120     2         ./src/smc_gen/r_bsp/mcu/all/r_bsp_common.o:(.text.R_BSP_SoftwareDelay)
     a44      b28        0     1                 .L0 
     a44      b28        0     1                 .L0 
     a44      b28        0     1                 $x
     a44      b28        0     1                 .L0 
     a44      b28      120     1                 R_BSP_SoftwareDelay
     a50      b34        0     1                 .L0 
     a50      b34        0     1                 .L0 
     a52      b36        0     1                 .L0 
     a52      b36        0     1                 .L0 
     a5a      b3e        0     1                 .L0 
     a5a      b3e        0     1                 .L0 
     a5c      b40        0     1                 .L0 
     a60      b44        0     1                 .L0 
     a62      b46        0     1                 .L0 
     a66      b4a        0     1                 .L0 
     a68      b4c        0     1                 .L0 
     a68      b4c        0     1                 .L0 
     a6a      b4e        0     1                 .L0 
     a72      b56        0     1                 .L0 
     a7a      b5e        0     1                 .L0 
     a7e      b62        0     1                 .L0 
     a82      b66        0     1                 .L0 
     a8c      b70        0     1                 .L0 
     a8e      b72        0     1                 .L0 
     aa2      b86        0     1                 .L0 
     aa4      b88        0     1                 .L0 
     aa4      b88        0     1                 .L0 
     aa8      b8c        0     1                 .L0 
     aa8      b8c        0     1                 .L0 
     aac      b90        0     1                 .L0 
     ac6      baa        0     1                 .L0 
     aee      bd2        0     1                 .L0 
     af2      bd6        0     1                 .L0 
     afa      bde        0     1                 .L0 
     afc      be0        0     1                 .L0 
     b00      be4        0     1                 .L0 
     b02      be6        0     1                 .L0 
     b04      be8        0     1                 .L0 
     b0a      bee        0     1                 .L0 
     b0e      bf2        0     1                 .L0 
     b0e      bf2        0     1                 .L0 
     b0e      bf2        0     1                 .L0 
     b10      bf4        0     1                 .L0 
     b1c      c00        0     1                 .L0 
     b22      c06        0     1                 .L0 
     b24      c08        0     1                 .L0 
     b2a      c0e        0     1                 .L0 
     b2e      c12        0     1                 .L0 
     b36      c1a        0     1                 .L0 
     b38      c1c        0     1                 .L0 
     b38      c1c        0     1                 .L0 
     b3a      c1e        0     1                 .L0 
     b3a      c1e        0     1                 .L0 
     b44      c28        0     1                 .L0 
     b4a      c2e        0     1                 .L0 
     b4c      c30        0     1                 .L0 
     b4e      c32        0     1                 .L0 
     b50      c34        0     1                 .L0 
     b50      c34        0     1                 .L0 
     b50      c34        0     1                 .L0 
     b52      c36        0     1                 .L0 
     b54      c38        0     1                 .L0 
     b54      c38        0     1                 .L0 
     b56      c3a        0     1                 .L0 
     b5a      c3e        0     1                 .L0 
     b5c      c40        0     1                 .L0 
     b60      c44        0     1                 .L0 
     b60      c44        0     1                 .L0 
     b60      c44        0     1                 .L0 
     b62      c46        0     1                 .L0 
     b64      c48        0     1                 .L0 
     b64      c48        0     1                 .L0 
     b64      c48       ae     2         ./src/smc_gen/r_bsp/mcu/all/r_bsp_common.o:(.text.R_BSP_RegisterProtectEnable)
     b64      c48        0     1                 .L0 
     b64      c48        0     1                 .L0 
     b64      c48        0     1                 $x
     b64      c48        0     1                 .L0 
     b64      c48       ae     1                 R_BSP_RegisterProtectEnable
     b74      c58        0     1                 .L0 
     b76      c5a        0     1                 .L0 
     b80      c64        0     1                 .L0 
     b80      c64        0     1                 .L0 
     b84      c68        0     1                 .L0 
     b86      c6a        0     1                 .L0 
     b88      c6c        0     1                 .L0 
     b88      c6c        0     1                 .L0 
     b8a      c6e        0     1                 .L0 
     b8e      c72        0     1                 .L0 
     b90      c74        0     1                 .L0 
     b94      c78        0     1                 .L0 
     b96      c7a        0     1                 .L0 
     b9a      c7e        0     1                 .L0 
     b9e      c82        0     1                 .L0 
     ba0      c84        0     1                 .L0 
     ba4      c88        0     1                 .L0 
     ba6      c8a        0     1                 .L0 
     ba6      c8a        0     1                 .L0 
     ba6      c8a        0     1                 .L0 
     ba8      c8c        0     1                 .L0 
     bac      c90        0     1                 .L0 
     bae      c92        0     1                 .L0 
     bb2      c96        0     1                 .L0 
     bb6      c9a        0     1                 .L0 
     bb6      c9a        0     1                 .L0 
     bc2      ca6        0     1                 .L0 
     bce      cb2        0     1                 .L0 
     bd0      cb4        0     1                 .L0 
     bd0      cb4        0     1                 .L0 
     bd0      cb4        0     1                 .L0 
     bd4      cb8        0     1                 .L0 
     bd8      cbc        0     1                 .L0 
     be4      cc8        0     1                 .L0 
     bee      cd2        0     1                 .L0 
     bf0      cd4        0     1                 .L0 
     bf4      cd8        0     1                 .L0 
     bf8      cdc        0     1                 .L0 
     bfa      cde        0     1                 .L0 
     bfa      cde        0     1                 .L0 
     bfa      cde        0     1                 .L0 
     bfe      ce2        0     1                 .L0 
     c00      ce4        0     1                 .L0 
     c04      ce8        0     1                 .L0 
     c06      cea        0     1                 .L0 
     c06      cea        0     1                 .L0 
     c06      cea        0     1                 .L0 
     c0a      cee        0     1                 .L0 
     c0c      cf0        0     1                 .L0 
     c10      cf4        0     1                 .L0 
     c12      cf6        0     1                 .L0 
     c12      cf6        0     1                 .L0 
     c12      cf6       a6     2         ./src/smc_gen/r_bsp/mcu/all/r_bsp_common.o:(.text.R_BSP_RegisterProtectDisable)
     c12      cf6        0     1                 .L0 
     c12      cf6        0     1                 .L0 
     c12      cf6        0     1                 $x
     c12      cf6        0     1                 .L0 
     c12      cf6       a6     1                 R_BSP_RegisterProtectDisable
     c22      d06        0     1                 .L0 
     c24      d08        0     1                 .L0 
     c24      d08        0     1                 .L0 
     c24      d08        0     1                 .L0 
     c2e      d12        0     1                 .L0 
     c30      d14        0     1                 .L0 
     c30      d14        0     1                 .L0 
     c30      d14        0     1                 .L0 
     c32      d16        0     1                 .L0 
     c36      d1a        0     1                 .L0 
     c38      d1c        0     1                 .L0 
     c3c      d20        0     1                 .L0 
     c3e      d22        0     1                 .L0 
     c42      d26        0     1                 .L0 
     c46      d2a        0     1                 .L0 
     c48      d2c        0     1                 .L0 
     c4c      d30        0     1                 .L0 
     c4e      d32        0     1                 .L0 
     c4e      d32        0     1                 .L0 
     c4e      d32        0     1                 .L0 
     c50      d34        0     1                 .L0 
     c54      d38        0     1                 .L0 
     c56      d3a        0     1                 .L0 
     c5a      d3e        0     1                 .L0 
     c5e      d42        0     1                 .L0 
     c5e      d42        0     1                 .L0 
     c6a      d4e        0     1                 .L0 
     c76      d5a        0     1                 .L0 
     c78      d5c        0     1                 .L0 
     c78      d5c        0     1                 .L0 
     c78      d5c        0     1                 .L0 
     c7c      d60        0     1                 .L0 
     c80      d64        0     1                 .L0 
     c8c      d70        0     1                 .L0 
     c96      d7a        0     1                 .L0 
     c9a      d7e        0     1                 .L0 
     ca0      d84        0     1                 .L0 
     ca0      d84        0     1                 .L0 
     ca0      d84        0     1                 .L0 
     ca4      d88        0     1                 .L0 
     ca6      d8a        0     1                 .L0 
     cac      d90        0     1                 .L0 
     cac      d90        0     1                 .L0 
     cac      d90        0     1                 .L0 
     cb0      d94        0     1                 .L0 
     cb2      d96        0     1                 .L0 
     cb6      d9a        0     1                 .L0 
     cb8      d9c        0     1                 .L0 
     cb8      d9c        0     1                 .L0 
     cb8      d9c       18     2         ./src/smc_gen/r_bsp/mcu/all/r_bsp_common.o:(.text.bsp_register_protect_open)
     cb8      d9c        0     1                 .L0 
     cb8      d9c        0     1                 .L0 
     cb8      d9c        0     1                 $x
     cb8      d9c        0     1                 .L0 
     cb8      d9c       18     1                 bsp_register_protect_open
     cc0      da4        0     1                 .L0 
     cc4      da8        0     1                 .L0 
     cc4      da8        0     1                 .L0 
     cc4      da8        0     1                 .L0 
     cc8      dac        0     1                 .L0 
     cca      dae        0     1                 .L0 
     cce      db2        0     1                 .L0 
     cd0      db4        0     1                 .L0 
     cd0      db4        0     1                 .L0 
     cd0      db4        2     2         ./src/smc_gen/r_bsp/mcu/all/r_bsp_machine_timer.o:(.text.machine_timer_create)
     cd0      db4        0     1                 .L0 
     cd0      db4        0     1                 .L0 
     cd0      db4        0     1                 $x
     cd0      db4        0     1                 .L0 
     cd0      db4        2     1                 machine_timer_create
     cd2      db6        0     1                 .L0 
     cd2      db6       12     2         ./src/smc_gen/r_bsp/board/generic_r9a02g021/hdwinit.o:(.text.hdwinit)
     cd2      db6        0     1                 .L0 
     cd2      db6        0     1                 .L0 
     cd2      db6        0     1                 $x
     cd2      db6        0     1                 .L0 
     cd2      db6       12     1                 hdwinit
     cd6      dba        0     1                 .L0 
     cd8      dbc        0     1                 .L0 
     cd8      dbc        0     1                 .L0 
     cda      dbe        0     1                 .L0 
     cda      dbe        0     1                 .L0 
     cdc      dc0        0     1                 .L0 
     cde      dc2        0     1                 .L0 
     cde      dc2        0     1                 .L0 
     ce0      dc4        0     1                 .L0 
     ce0      dc4        0     1                 .L0 
     ce2      dc6        0     1                 .L0 
     ce4      dc8        0     1                 .L0 
     ce4      dc8        0     1                 .L0 
     ce4      dc8        0     1                 .L0 
     ce4      dc8       1c     2         ./src/smc_gen/r_bsp/board/generic_r9a02g021/r_bsp_init.o:(.text.bsp_init_system)
     ce4      dc8        0     1                 .L0 
     ce4      dc8        0     1                 .L0 
     ce4      dc8        0     1                 $x
     ce4      dc8        0     1                 .L0 
     ce4      dc8       1c     1                 bsp_init_system
     ce8      dcc        0     1                 .L0 
     cea      dce        0     1                 .L0 
     cea      dce        0     1                 .L0 
     cee      dd2        0     1                 .L0 
     cfc      de0        0     1                 .L0 
     d00      de4        0     1                 .L0 
     d00      de4        0     1                 .L0 
     d00      de4        2     2         ./src/smc_gen/r_bsp/board/generic_r9a02g021/r_bsp_init.o:(.text.bsp_init_hardware)
     d00      de4        0     1                 .L0 
     d00      de4        0     1                 .L0 
     d00      de4        0     1                 $x
     d00      de4        0     1                 .L0 
     d00      de4        2     1                 bsp_init_hardware
     d02      de6        0     1                 .L0 
     d02      de6        0     1                 .L0 
     d02      de6        4     2         ./src/smc_gen/general/r_cg_inthandler.o:(.text.INT_ACLINT_MSIP)
     d02      de6        0     1                 .L0 
     d02      de6        0     1                 .L0 
     d02      de6        0     1                 $x
     d02      de6        0     1                 .L0 
     d02      de6        4     1                 INT_ACLINT_MSIP
     d06      dea        0     1                 .L0 
     d06      dea        4     2         ./src/smc_gen/general/r_cg_inthandler.o:(.text.INT_ACLINT_MTIP)
     d06      dea        0     1                 .L0 
     d06      dea        0     1                 .L0 
     d06      dea        0     1                 $x
     d06      dea        0     1                 .L0 
     d06      dea        4     1                 INT_ACLINT_MTIP
     d0a      dee        0     1                 .L0 
     d0a      dee        4     2         ./src/smc_gen/general/r_cg_inthandler.o:(.text.INT_IELSR0)
     d0a      dee        0     1                 .L0 
     d0a      dee        0     1                 .L0 
     d0a      dee        0     1                 $x
     d0a      dee        0     1                 .L0 
     d0a      dee        4     1                 INT_IELSR0
     d0e      df2        0     1                 .L0 
     d0e      df2        4     2         ./src/smc_gen/general/r_cg_inthandler.o:(.text.INT_IELSR1)
     d0e      df2        0     1                 .L0 
     d0e      df2        0     1                 .L0 
     d0e      df2        0     1                 $x
     d0e      df2        0     1                 .L0 
     d0e      df2        4     1                 INT_IELSR1
     d12      df6        0     1                 .L0 
     d12      df6        4     2         ./src/smc_gen/general/r_cg_inthandler.o:(.text.INT_IELSR2)
     d12      df6        0     1                 .L0 
     d12      df6        0     1                 .L0 
     d12      df6        0     1                 $x
     d12      df6        0     1                 .L0 
     d12      df6        4     1                 INT_IELSR2
     d16      dfa        0     1                 .L0 
     d16      dfa        4     2         ./src/smc_gen/general/r_cg_inthandler.o:(.text.INT_IELSR3)
     d16      dfa        0     1                 .L0 
     d16      dfa        0     1                 .L0 
     d16      dfa        0     1                 $x
     d16      dfa        0     1                 .L0 
     d16      dfa        4     1                 INT_IELSR3
     d1a      dfe        0     1                 .L0 
     d1a      dfe        4     2         ./src/smc_gen/general/r_cg_inthandler.o:(.text.INT_IELSR5)
     d1a      dfe        0     1                 .L0 
     d1a      dfe        0     1                 .L0 
     d1a      dfe        0     1                 $x
     d1a      dfe        0     1                 .L0 
     d1a      dfe        4     1                 INT_IELSR5
     d1e      e02        0     1                 .L0 
     d1e      e02        4     2         ./src/smc_gen/general/r_cg_inthandler.o:(.text.INT_IELSR6)
     d1e      e02        0     1                 .L0 
     d1e      e02        0     1                 .L0 
     d1e      e02        0     1                 $x
     d1e      e02        0     1                 .L0 
     d1e      e02        4     1                 INT_IELSR6
     d22      e06        0     1                 .L0 
     d22      e06        4     2         ./src/smc_gen/general/r_cg_inthandler.o:(.text.INT_IELSR7)
     d22      e06        0     1                 .L0 
     d22      e06        0     1                 .L0 
     d22      e06        0     1                 $x
     d22      e06        0     1                 .L0 
     d22      e06        4     1                 INT_IELSR7
     d26      e0a        0     1                 .L0 
     d26      e0a        4     2         ./src/smc_gen/general/r_cg_inthandler.o:(.text.INT_IELSR8)
     d26      e0a        0     1                 .L0 
     d26      e0a        0     1                 .L0 
     d26      e0a        0     1                 $x
     d26      e0a        0     1                 .L0 
     d26      e0a        4     1                 INT_IELSR8
     d2a      e0e        0     1                 .L0 
     d2a      e0e        4     2         ./src/smc_gen/general/r_cg_inthandler.o:(.text.INT_IELSR9)
     d2a      e0e        0     1                 .L0 
     d2a      e0e        0     1                 .L0 
     d2a      e0e        0     1                 $x
     d2a      e0e        0     1                 .L0 
     d2a      e0e        4     1                 INT_IELSR9
     d2e      e12        0     1                 .L0 
     d2e      e12        4     2         ./src/smc_gen/general/r_cg_inthandler.o:(.text.INT_IELSR10)
     d2e      e12        0     1                 .L0 
     d2e      e12        0     1                 .L0 
     d2e      e12        0     1                 $x
     d2e      e12        0     1                 .L0 
     d2e      e12        4     1                 INT_IELSR10
     d32      e16        0     1                 .L0 
     d32      e16        4     2         ./src/smc_gen/general/r_cg_inthandler.o:(.text.INT_IELSR11)
     d32      e16        0     1                 .L0 
     d32      e16        0     1                 .L0 
     d32      e16        0     1                 $x
     d32      e16        0     1                 .L0 
     d32      e16        4     1                 INT_IELSR11
     d36      e1a        0     1                 .L0 
     d36      e1a        4     2         ./src/smc_gen/general/r_cg_inthandler.o:(.text.INT_IELSR12)
     d36      e1a        0     1                 .L0 
     d36      e1a        0     1                 .L0 
     d36      e1a        0     1                 $x
     d36      e1a        0     1                 .L0 
     d36      e1a        4     1                 INT_IELSR12
     d3a      e1e        0     1                 .L0 
     d3a      e1e        4     2         ./src/smc_gen/general/r_cg_inthandler.o:(.text.INT_IELSR13)
     d3a      e1e        0     1                 .L0 
     d3a      e1e        0     1                 .L0 
     d3a      e1e        0     1                 $x
     d3a      e1e        0     1                 .L0 
     d3a      e1e        4     1                 INT_IELSR13
     d3e      e22        0     1                 .L0 
     d3e      e22        4     2         ./src/smc_gen/general/r_cg_inthandler.o:(.text.INT_IELSR14)
     d3e      e22        0     1                 .L0 
     d3e      e22        0     1                 .L0 
     d3e      e22        0     1                 $x
     d3e      e22        0     1                 .L0 
     d3e      e22        4     1                 INT_IELSR14
     d42      e26        0     1                 .L0 
     d42      e26        4     2         ./src/smc_gen/general/r_cg_inthandler.o:(.text.INT_IELSR15)
     d42      e26        0     1                 .L0 
     d42      e26        0     1                 .L0 
     d42      e26        0     1                 $x
     d42      e26        0     1                 .L0 
     d42      e26        4     1                 INT_IELSR15
     d46      e2a        0     1                 .L0 
     d46      e2a        4     2         ./src/smc_gen/general/r_cg_inthandler.o:(.text.INT_IELSR16)
     d46      e2a        0     1                 .L0 
     d46      e2a        0     1                 .L0 
     d46      e2a        0     1                 $x
     d46      e2a        0     1                 .L0 
     d46      e2a        4     1                 INT_IELSR16
     d4a      e2e        0     1                 .L0 
     d4a      e2e        4     2         ./src/smc_gen/general/r_cg_inthandler.o:(.text.INT_IELSR17)
     d4a      e2e        0     1                 .L0 
     d4a      e2e        0     1                 .L0 
     d4a      e2e        0     1                 $x
     d4a      e2e        0     1                 .L0 
     d4a      e2e        4     1                 INT_IELSR17
     d4e      e32        0     1                 .L0 
     d4e      e32        4     2         ./src/smc_gen/general/r_cg_inthandler.o:(.text.INT_IELSR18)
     d4e      e32        0     1                 .L0 
     d4e      e32        0     1                 .L0 
     d4e      e32        0     1                 $x
     d4e      e32        0     1                 .L0 
     d4e      e32        4     1                 INT_IELSR18
     d52      e36        0     1                 .L0 
     d52      e36        4     2         ./src/smc_gen/general/r_cg_inthandler.o:(.text.INT_IELSR19)
     d52      e36        0     1                 .L0 
     d52      e36        0     1                 .L0 
     d52      e36        0     1                 $x
     d52      e36        0     1                 .L0 
     d52      e36        4     1                 INT_IELSR19
     d56      e3a        0     1                 .L0 
     d56      e3a        4     2         ./src/smc_gen/general/r_cg_inthandler.o:(.text.INT_IELSR20)
     d56      e3a        0     1                 .L0 
     d56      e3a        0     1                 .L0 
     d56      e3a        0     1                 $x
     d56      e3a        0     1                 .L0 
     d56      e3a        4     1                 INT_IELSR20
     d5a      e3e        0     1                 .L0 
     d5a      e3e        4     2         ./src/smc_gen/general/r_cg_inthandler.o:(.text.INT_IELSR21)
     d5a      e3e        0     1                 .L0 
     d5a      e3e        0     1                 .L0 
     d5a      e3e        0     1                 $x
     d5a      e3e        0     1                 .L0 
     d5a      e3e        4     1                 INT_IELSR21
     d5e      e42        0     1                 .L0 
     d5e      e42        4     2         ./src/smc_gen/general/r_cg_inthandler.o:(.text.INT_IELSR22)
     d5e      e42        0     1                 .L0 
     d5e      e42        0     1                 .L0 
     d5e      e42        0     1                 $x
     d5e      e42        0     1                 .L0 
     d5e      e42        4     1                 INT_IELSR22
     d62      e46        0     1                 .L0 
     d62      e46        4     2         ./src/smc_gen/general/r_cg_inthandler.o:(.text.INT_IELSR23)
     d62      e46        0     1                 .L0 
     d62      e46        0     1                 .L0 
     d62      e46        0     1                 $x
     d62      e46        0     1                 .L0 
     d62      e46        4     1                 INT_IELSR23
     d66      e4a        0     1                 .L0 
     d66      e4a        4     2         ./src/smc_gen/general/r_cg_inthandler.o:(.text.INT_IELSR24)
     d66      e4a        0     1                 .L0 
     d66      e4a        0     1                 .L0 
     d66      e4a        0     1                 $x
     d66      e4a        0     1                 .L0 
     d66      e4a        4     1                 INT_IELSR24
     d6a      e4e        0     1                 .L0 
     d6a      e4e        4     2         ./src/smc_gen/general/r_cg_inthandler.o:(.text.INT_IELSR25)
     d6a      e4e        0     1                 .L0 
     d6a      e4e        0     1                 .L0 
     d6a      e4e        0     1                 $x
     d6a      e4e        0     1                 .L0 
     d6a      e4e        4     1                 INT_IELSR25
     d6e      e52        0     1                 .L0 
     d6e      e52        4     2         ./src/smc_gen/general/r_cg_inthandler.o:(.text.INT_IELSR26)
     d6e      e52        0     1                 .L0 
     d6e      e52        0     1                 .L0 
     d6e      e52        0     1                 $x
     d6e      e52        0     1                 .L0 
     d6e      e52        4     1                 INT_IELSR26
     d72      e56        0     1                 .L0 
     d72      e56        4     2         ./src/smc_gen/general/r_cg_inthandler.o:(.text.INT_IELSR27)
     d72      e56        0     1                 .L0 
     d72      e56        0     1                 .L0 
     d72      e56        0     1                 $x
     d72      e56        0     1                 .L0 
     d72      e56        4     1                 INT_IELSR27
     d76      e5a        0     1                 .L0 
     d76      e5a        4     2         ./src/smc_gen/general/r_cg_inthandler.o:(.text.INT_IELSR28)
     d76      e5a        0     1                 .L0 
     d76      e5a        0     1                 .L0 
     d76      e5a        0     1                 $x
     d76      e5a        0     1                 .L0 
     d76      e5a        4     1                 INT_IELSR28
     d7a      e5e        0     1                 .L0 
     d7a      e5e        4     2         ./src/smc_gen/general/r_cg_inthandler.o:(.text.INT_IELSR29)
     d7a      e5e        0     1                 .L0 
     d7a      e5e        0     1                 .L0 
     d7a      e5e        0     1                 $x
     d7a      e5e        0     1                 .L0 
     d7a      e5e        4     1                 INT_IELSR29
     d7e      e62        0     1                 .L0 
     d7e      e62        4     2         ./src/smc_gen/general/r_cg_inthandler.o:(.text.INT_IELSR30)
     d7e      e62        0     1                 .L0 
     d7e      e62        0     1                 .L0 
     d7e      e62        0     1                 $x
     d7e      e62        0     1                 .L0 
     d7e      e62        4     1                 INT_IELSR30
     d82      e66        0     1                 .L0 
     d82      e66        4     2         ./src/smc_gen/general/r_cg_inthandler.o:(.text.INT_IELSR31)
     d82      e66        0     1                 .L0 
     d82      e66        0     1                 .L0 
     d82      e66        0     1                 $x
     d82      e66        0     1                 .L0 
     d82      e66        4     1                 INT_IELSR31
     d86      e6a        0     1                 .L0 
     d86      e6a        4     2         ./src/smc_gen/general/r_cg_inthandler.o:(.text.INT_DUMMY)
     d86      e6a        0     1                 .L0 
     d86      e6a        0     1                 .L0 
     d86      e6a        0     1                 $x
     d86      e6a        0     1                 .L0 
     d86      e6a        4     1                 INT_DUMMY
     d8a      e6e        0     1                 .L0 
     d8a      e6e       1c     2         ./src/smc_gen/general/r_cg_systeminit.o:(.text.R_Systeminit)
     d8a      e6e        0     1                 .L0 
     d8a      e6e        0     1                 .L0 
     d8a      e6e        0     1                 $x
     d8a      e6e        0     1                 .L0 
     d8a      e6e       1c     1                 R_Systeminit
     d8e      e72        0     1                 .L0 
     d90      e74        0     1                 .L0 
     d94      e78        0     1                 .L0 
     d98      e7c        0     1                 .L0 
     d98      e7c        0     1                 .L0 
     d9a      e7e        0     1                 .L0 
     d9a      e7e        0     1                 .L0 
     d9c      e80        0     1                 .L0 
     d9c      e80        0     1                 .L0 
     d9e      e82        0     1                 .L0 
     d9e      e82        0     1                 .L0 
     da2      e86        0     1                 .L0 
     da4      e88        0     1                 .L0 
     da6      e8a        0     1                 .L0 
     da6      e8a        0     1                 .L0 
     da6      e8a        2     2         ./src/smc_gen/general/r_cg_vect_table.o:(.text.nvect_function)
     da6      e8a        2     1                 nvect_function
     da6      e8a        0     1                 .L0 
     da6      e8a        0     1                 .L0 
     da6      e8a        0     1                 $x
     da6      e8a        0     1                 .L0 
     da8      e8c        0     1                 .L0 
     da8      e8c       2e     2         ./src/smc_gen/general/r_cg_vect_table.o:(.text.initialize_vect)
     da8      e8c        0     1                 .L0 
     da8      e8c        0     1                 .L0 
     da8      e8c        0     1                 $x
     da8      e8c        0     1                 .L0 
     da8      e8c       2e     1                 initialize_vect
     db8      e9c        0     1                 .L0 
     dbc      ea0        0     1                 .L0 
     dc0      ea4        0     1                 .L0 
     dcc      eb0        0     1                 .L0 
     dd0      eb4        0     1                 .L0 
     dd4      eb8        0     1                 .L0 
     dd6      eba        0     1                 .L0 
     dd6      eba        0     1                 .L0 
     dd6      eba        2     2         ./src/smc_gen/general/r_cg_vect_table.o:(.text.nmi_handler)
     dd6      eba        2     1                 nmi_handler
     dd6      eba        0     1                 .L0 
     dd6      eba        0     1                 .L0 
     dd6      eba        0     1                 $x
     dd6      eba        0     1                 .L0 
     dd8      ebc        0     1                 .L0 
     dd8      ebc        2     2         ./src/smc_gen/general/r_smc_cgc.o:(.text.R_CGC_Create)
     dd8      ebc        0     1                 .L0 
     dd8      ebc        0     1                 .L0 
     dd8      ebc        0     1                 $x
     dd8      ebc        0     1                 .L0 
     dd8      ebc        2     1                 R_CGC_Create
     dda      ebe        0     1                 .L0 
     dda      ebe        0     1                 .L0 
     dda      ebe        2     2         ./src/smc_gen/general/r_smc_cgc_user.o:(.text.R_CGC_Create_UserInit)
     dda      ebe        0     1                 .L0 
     dda      ebe        0     1                 .L0 
     dda      ebe        0     1                 $x
     dda      ebe        0     1                 .L0 
     dda      ebe        2     1                 R_CGC_Create_UserInit
     ddc      ec0        0     1                 .L0 
     ddc      ec0       4a     2         ./src/smc_gen/Config_PORT/Config_PORT.o:(.text.R_Config_PORT_Create)
     ddc      ec0        0     1                 .L0 
     ddc      ec0        0     1                 .L0 
     ddc      ec0        0     1                 $x
     ddc      ec0        0     1                 .L0 
     ddc      ec0       4a     1                 R_Config_PORT_Create
     de2      ec6        0     1                 .L0 
     de6      eca        0     1                 .L0 
     dea      ece        0     1                 .L0 
     dee      ed2        0     1                 .L0 
     df2      ed6        0     1                 .L0 
     df6      eda        0     1                 .L0 
     dfa      ede        0     1                 .L0 
     dfe      ee2        0     1                 .L0 
     e02      ee6        0     1                 .L0 
     e06      eea        0     1                 .L0 
     e0a      eee        0     1                 .L0 
     e0e      ef2        0     1                 .L0 
     e14      ef8        0     1                 .L0 
     e1c      f00        0     1                 .L0 
     e20      f04        0     1                 .L0 
     e24      f08        0     1                 .L0 
     e24      f08        0     1                 .L0 
     e26      f0a        0     1                 .L0 
     e26      f0a        0     1                 .L0 
     e26      f0a        2     2         ./src/smc_gen/Config_PORT/Config_PORT_user.o:(.text.R_Config_PORT_Create_UserInit)
     e26      f0a        0     1                 .L0 
     e26      f0a        0     1                 .L0 
     e26      f0a        0     1                 $x
     e26      f0a        0     1                 .L0 
     e26      f0a        2     1                 R_Config_PORT_Create_UserInit
     e28      f0c        0     1                 .L0 
     e28      f0c       70     2         ./src/smc_gen/Config_ICU/Config_ICU.o:(.text.R_Config_ICU_Create)
     e28      f0c        0     1                 .L0 
     e28      f0c        0     1                 .L0 
     e28      f0c        0     1                 $x
     e28      f0c        0     1                 .L0 
     e28      f0c       70     1                 R_Config_ICU_Create
     e2c      f10        0     1                 .L0 
     e3c      f20        0     1                 .L0 
     e4c      f30        0     1                 .L0 
     e58      f3c        0     1                 .L0 
     e62      f46        0     1                 .L0 
     e6e      f52        0     1                 .L0 
     e74      f58        0     1                 .L0 
     e7c      f60        0     1                 .L0 
     e80      f64        0     1                 .L0 
     e8a      f6e        0     1                 .L0 
     e96      f7a        0     1                 .L0 
     e96      f7a        0     1                 .L0 
     e98      f7c        0     1                 .L0 
     e98      f7c        0     1                 .L0 
     e98      f7c       22     2         ./src/smc_gen/Config_ICU/Config_ICU.o:(.text.R_Config_ICU_IRQ4_Start)
     e98      f7c        0     1                 .L0 
     e98      f7c        0     1                 .L0 
     e98      f7c        0     1                 $x
     e98      f7c        0     1                 .L0 
     e98      f7c       22     1                 R_Config_ICU_IRQ4_Start
     e9c      f80        0     1                 .L0 
     eac      f90        0     1                 .L0 
     eb8      f9c        0     1                 .L0 
     eba      f9e        0     1                 .L0 
     eba      f9e        2     2         ./src/smc_gen/Config_ICU/Config_ICU_user.o:(.text.R_Config_ICU_Create_UserInit)
     eba      f9e        0     1                 .L0 
     eba      f9e        0     1                 .L0 
     eba      f9e        0     1                 $x
     eba      f9e        0     1                 .L0 
     eba      f9e        2     1                 R_Config_ICU_Create_UserInit
     ebc      fa0        0     1                 .L0 
     ebc      fa0       54     2         ./src/smc_gen/Config_ICU/Config_ICU_user.o:(.text.r_Config_ICU_irq4_interrupt)
     ebc      fa0        0     1                 .L0 
     ebc      fa0        0     1                 .L0 
     ebc      fa0        0     1                 $x
     ebc      fa0        0     1                 .L0 
     ebc      fa0       54     1                 r_Config_ICU_irq4_interrupt
     ec8      fac        0     1                 .L0 
     edc      fc0        0     1                 .L0 
     ee0      fc4        0     1                 .L0 
     ee4      fc8        0     1                 .L0 
     ee4      fc8        0     1                 .L0 
     ee8      fcc        0     1                 .L0 
     eec      fd0        0     1                 .L0 
     ef4      fd8        0     1                 .L0 
     f0a      fee        0     1                 .L0 
     f10      ff4        0     1                 .L0 
     f10      ff4        0     1                 .L0 
     f10      ff4      160     2         ./src/heap_4.o:(.text.pvPortMalloc)
     f10      ff4        0     1                 .L0 
     f10      ff4        0     1                 .L0 
     f10      ff4        0     1                 $x
     f10      ff4        0     1                 .L0 
     f10      ff4      160     1                 pvPortMalloc
     f18      ffc        0     1                 .L0 
     f22     1006        0     1                 .L0 
     f22     1006        0     1                 .L0 
     f26     100a        0     1                 .L0 
     f2a     100e        0     1                 .L0 
     f2c     1010        0     1                 .L0 
     f2c     1010        0     1                 .L0 
     f2e     1012        0     1                 .L0 
     f2e     1012        0     1                 .L0 
     f32     1016        0     1                 .L0 
     f32     1016        0     1                 .L0 
     f32     1016        0     1                 .L0 
     f34     1018        0     1                 .L0 
     f34     1018        0     1                 .L0 
     f34     1018        0     1                 .L0 
     f38     101c        0     1                 .L0 
     f38     101c        0     1                 .L0 
     f40     1024        0     1                 .L0 
     f42     1026        0     1                 .L0 
     f4a     102e        0     1                 .L0 
     f4a     102e        0     1                 .L0 
     f4a     102e        0     1                 .L0 
     f52     1036        0     1                 .L0 
     f58     103c        0     1                 .L0 
     f5a     103e        0     1                 .L0 
     f60     1044        0     1                 .L0 
     f60     1044        0     1                 .L0 
     f60     1044        0     1                 .L0 
     f6c     1050        0     1                 .L0 
     f72     1056        0     1                 .L0 
     f74     1058        0     1                 .L0 
     f76     105a        0     1                 .L0 
     f7a     105e        0     1                 .L0 
     f7a     105e        0     1                 .L0 
     f82     1066        0     1                 .L0 
     f86     106a        0     1                 .L0 
     f86     106a        0     1                 .L0 
     f8a     106e        0     1                 .L0 
     f8e     1072        0     1                 .L0 
     f90     1074        0     1                 .L0 
     f90     1074        0     1                 .L0 
     f92     1076        0     1                 .L0 
     f94     1078        0     1                 .L0 
     f98     107c        0     1                 .L0 
     f9c     1080        0     1                 .L0 
     fa6     108a        0     1                 .L0 
     fa6     108a        0     1                 .L0 
     faa     108e        0     1                 .L0 
     faa     108e        0     1                 .L0 
     fb2     1096        0     1                 .L0 
     fb6     109a        0     1                 .L0 
     fbe     10a2        0     1                 .L0 
     fbe     10a2        0     1                 .L0 
     fc0     10a4        0     1                 .L0 
     fc4     10a8        0     1                 .L0 
     fc6     10aa        0     1                 .L0 
     fc8     10ac        0     1                 .L0 
     fc8     10ac        0     1                 .L0 
     fcc     10b0        0     1                 .L0 
     fcc     10b0        0     1                 .L0 
     fce     10b2        0     1                 .L0 
     fd2     10b6        0     1                 .L0 
     fd4     10b8        0     1                 .L0 
     fd8     10bc        0     1                 .L0 
     fd8     10bc        0     1                 .L0 
     fd8     10bc        0     1                 .L0 
     fda     10be        0     1                 .L0 
     fde     10c2        0     1                 .L0 
     fde     10c2        0     1                 .L0 
     fe0     10c4        0     1                 .L0 
     fe0     10c4        0     1                 .L0 
     fe4     10c8        0     1                 .L0 
     fe8     10cc        0     1                 .L0 
     fe8     10cc        0     1                 .L0 
     fe8     10cc        0     1                 .L0 
     ff0     10d4        0     1                 .L0 
     ff4     10d8        0     1                 .L0 
     ff6     10da        0     1                 .L0 
     ff8     10dc        0     1                 .L0 
     ff8     10dc        0     1                 .L0 
     ffa     10de        0     1                 .L0 
     ffc     10e0        0     1                 .L0 
    1002     10e6        0     1                 .L0 
    1006     10ea        0     1                 .L0 
    100a     10ee        0     1                 .L0 
    100a     10ee        0     1                 .L0 
    100c     10f0        0     1                 .L0 
    100e     10f2        0     1                 .L0 
    1010     10f4        0     1                 .L0 
    1012     10f6        0     1                 .L0 
    1014     10f8        0     1                 .L0 
    1014     10f8        0     1                 .L0 
    1014     10f8        0     1                 .L0 
    1016     10fa        0     1                 .L0 
    101e     1102        0     1                 .L0 
    1022     1106        0     1                 .L0 
    1026     110a        0     1                 .L0 
    102e     1112        0     1                 .L0 
    1032     1116        0     1                 .L0 
    1036     111a        0     1                 .L0 
    1036     111a        0     1                 .L0 
    1038     111c        0     1                 .L0 
    1038     111c        0     1                 .L0 
    103c     1120        0     1                 .L0 
    1044     1128        0     1                 .L0 
    1046     112a        0     1                 .L0 
    1046     112a        0     1                 .L0 
    104a     112e        0     1                 .L0 
    104c     1130        0     1                 .L0 
    1052     1136        0     1                 .L0 
    1052     1136        0     1                 .L0 
    1052     1136        0     1                 .L0 
    1056     113a        0     1                 .L0 
    1056     113a        0     1                 .L0 
    1058     113c        0     1                 .L0 
    1058     113c        0     1                 .L0 
    105a     113e        0     1                 .L0 
    105a     113e        0     1                 .L0 
    105a     113e        0     1                 .L0 
    1060     1144        0     1                 .L0 
    1060     1144        0     1                 .L0 
    1062     1146        0     1                 .L0 
    1062     1146        0     1                 .L0 
    1066     114a        0     1                 .L0 
    1066     114a        0     1                 .L0 
    1066     114a        0     1                 .L0 
    1068     114c        0     1                 .L0 
    1068     114c        0     1                 .L0 
    106c     1150        0     1                 .L0 
    106c     1150        0     1                 .L0 
    1070     1154        0     1                 .L0 
    1070     1154        0     1                 .L0 
    1070     1154       b2     2         ./src/heap_4.o:(.text.vPortFree)
    1070     1154        0     1                 .L0 
    1070     1154        0     1                 .L0 
    1070     1154        0     1                 $x
    1070     1154        0     1                 .L0 
    1070     1154       b2     1                 vPortFree
    1078     115c        0     1                 .L0 
    107a     115e        0     1                 .L0 
    107a     115e        0     1                 .L0 
    107e     1162        0     1                 .L0 
    1082     1166        0     1                 .L0 
    1086     116a        0     1                 .L0 
    1086     116a        0     1                 .L0 
    1088     116c        0     1                 .L0 
    108a     116e        0     1                 .L0 
    108a     116e        0     1                 .L0 
    108a     116e        0     1                 .L0 
    1090     1174        0     1                 .L0 
    1094     1178        0     1                 .L0 
    1094     1178        0     1                 .L0 
    1094     1178        0     1                 .L0 
    109e     1182        0     1                 .L0 
    109e     1182        0     1                 .L0 
    10a2     1186        0     1                 .L0 
    10a2     1186        0     1                 .L0 
    10a4     1188        0     1                 .L0 
    10a8     118c        0     1                 .L0 
    10be     11a2        0     1                 .L0 
    10be     11a2        0     1                 .L0 
    10be     11a2        0     1                 .L0 
    10c0     11a4        0     1                 .L0 
    10c0     11a4        0     1                 .L0 
    10c2     11a6        0     1                 .L0 
    10c6     11aa        0     1                 .L0 
    10c6     11aa        0     1                 .L0 
    10c8     11ac        0     1                 .L0 
    10cc     11b0        0     1                 .L0 
    10d0     11b4        0     1                 .L0 
    10d4     11b8        0     1                 .L0 
    10d8     11bc        0     1                 .L0 
    10d8     11bc        0     1                 .L0 
    10da     11be        0     1                 .L0 
    10da     11be        0     1                 .L0 
    10da     11be        0     1                 .L0 
    10dc     11c0        0     1                 .L0 
    10de     11c2        0     1                 .L0 
    10e2     11c6        0     1                 .L0 
    10e6     11ca        0     1                 .L0 
    10e8     11cc        0     1                 .L0 
    10ea     11ce        0     1                 .L0 
    10ea     11ce        0     1                 .L0 
    10f2     11d6        0     1                 .L0 
    10f6     11da        0     1                 .L0 
    10f8     11dc        0     1                 .L0 
    10fc     11e0        0     1                 .L0 
    10fe     11e2        0     1                 .L0 
    1100     11e4        0     1                 .L0 
    1100     11e4        0     1                 .L0 
    1102     11e6        0     1                 .L0 
    1106     11ea        0     1                 .L0 
    1108     11ec        0     1                 .L0 
    1108     11ec        0     1                 .L0 
    1108     11ec        0     1                 .L0 
    111c     1200        0     1                 .L0 
    111c     1200        0     1                 .L0 
    111e     1202        0     1                 .L0 
    1122     1206        0     1                 .L0 
    1122     1206        0     1                 .L0 
    1122     1206       14     2         ./src/list.o:(.text.vListInitialise)
    1122     1206        0     1                 .L0 
    1122     1206        0     1                 .L0 
    1122     1206        0     1                 $x
    1122     1206        0     1                 .L0 
    1122     1206       14     1                 vListInitialise
    1126     120a        0     1                 .L0 
    112a     120e        0     1                 .L0 
    112c     1210        0     1                 .L0 
    112e     1212        0     1                 .L0 
    1130     1214        0     1                 .L0 
    1134     1218        0     1                 .L0 
    1136     121a        0     1                 .L0 
    1136     121a        6     2         ./src/list.o:(.text.vListInitialiseItem)
    1136     121a        0     1                 .L0 
    1136     121a        0     1                 .L0 
    1136     121a        0     1                 $x
    1136     121a        0     1                 .L0 
    1136     121a        6     1                 vListInitialiseItem
    113a     121e        0     1                 .L0 
    113c     1220        0     1                 .L0 
    113c     1220       2e     2         ./src/list.o:(.text.vListInsert)
    113c     1220        0     1                 .L0 
    113c     1220        0     1                 .L0 
    113c     1220        0     1                 $x
    113c     1220        0     1                 .L0 
    113c     1220       2e     1                 vListInsert
    113e     1222        0     1                 .L0 
    1140     1224        0     1                 .L0 
    1144     1228        0     1                 .L0 
    1148     122c        0     1                 .L0 
    1148     122c        0     1                 .L0 
    114a     122e        0     1                 .L0 
    114a     122e        0     1                 .L0 
    114c     1230        0     1                 .L0 
    114e     1232        0     1                 .L0 
    1154     1238        0     1                 .L0 
    1154     1238        0     1                 .L0 
    1154     1238        0     1                 .L0 
    1156     123a        0     1                 .L0 
    1156     123a        0     1                 .L0 
    1156     123a        0     1                 .L0 
    1158     123c        0     1                 .L0 
    1158     123c        0     1                 .L0 
    115a     123e        0     1                 .L0 
    115c     1240        0     1                 .L0 
    115e     1242        0     1                 .L0 
    1160     1244        0     1                 .L0 
    1162     1246        0     1                 .L0 
    1164     1248        0     1                 .L0 
    1164     1248        0     1                 .L0 
    1166     124a        0     1                 .L0 
    1168     124c        0     1                 .L0 
    116a     124e        0     1                 .L0 
    116a     124e        0     1                 .L0 
    116a     124e       24     2         ./src/list.o:(.text.uxListRemove)
    116a     124e        0     1                 .L0 
    116a     124e        0     1                 .L0 
    116a     124e        0     1                 $x
    116a     124e        0     1                 .L0 
    116a     124e       24     1                 uxListRemove
    116c     1250        0     1                 .L0 
    116e     1252        0     1                 .L0 
    1170     1254        0     1                 .L0 
    1172     1256        0     1                 .L0 
    1174     1258        0     1                 .L0 
    1176     125a        0     1                 .L0 
    1178     125c        0     1                 .L0 
    117a     125e        0     1                 .L0 
    117e     1262        0     1                 .L0 
    1180     1264        0     1                 .L0 
    1182     1266        0     1                 .L0 
    1182     1266        0     1                 .L0 
    1186     126a        0     1                 .L0 
    1188     126c        0     1                 .L0 
    1188     126c        0     1                 .L0 
    118a     126e        0     1                 .L0 
    118c     1270        0     1                 .L0 
    118e     1272        0     1                 .L0 
    118e     1272        0     1                 .L0 
    118e     1272        6     2         ./src/main.o:(.text.vApplicationMallocFailedHook)
    118e     1272        0     1                 .L0 
    118e     1272        0     1                 .L0 
    118e     1272        0     1                 $x
    118e     1272        0     1                 .L0 
    118e     1272        6     1                 vApplicationMallocFailedHook
    1192     1276        0     1                 .L0 
    1192     1276        0     1                 .L0 
    1194     1278        0     1                 .L0 
    1194     1278        0     1                 .L0 
    1194     1278       58     2         ./src/main.o:(.text.main)
    1194     1278        0     1                 .L0 
    1194     1278        0     1                 .L0 
    1194     1278        0     1                 $x
    1194     1278        0     1                 .L0 
    1194     1278       58     1                 main
    119c     1280        0     1                 .L0 
    11a2     1286        0     1                 .L0 
    11aa     128e        0     1                 .L0 
    11b2     1296        0     1                 .L0 
    11b2     1296        0     1                 .L0 
    11b4     1298        0     1                 .L0 
    11b4     1298        0     1                 .L0 
    11bc     12a0        0     1                 .L0 
    11bc     12a0        0     1                 .L0 
    11c4     12a8        0     1                 .L0 
    11e6     12ca        0     1                 .L0 
    11e6     12ca        0     1                 .L0 
    11ea     12ce        0     1                 .L0 
    11ea     12ce        0     1                 .L0 
    11ea     12ce        0     1                 .L0 
    11ec     12d0        0     1                 .L0 
    11ec     12d0        0     1                 .L0 
    11ec     12d0       26     2         ./src/main.o:(.text.prvBlinkyTask)
    11ec     12d0       26     1                 prvBlinkyTask
    11ec     12d0        0     1                 .L0 
    11ec     12d0        0     1                 .L0 
    11ec     12d0        0     1                 $x
    11ec     12d0        0     1                 .L0 
    11f6     12da        0     1                 .L0 
    11f6     12da        0     1                 .L0 
    11f8     12dc        0     1                 .L0 
    120a     12ee        0     1                 .L0 
    1210     12f4        0     1                 .L0 
    1210     12f4        0     1                 .L0 
    1212     12f6        0     1                 .L0 
    1212     12f6        0     1                 .L0 
    1212     12f6       66     2         ./src/port.o:(.text.vPortSetupTimerInterrupt)
    1212     12f6        0     1                 .L0 
    1212     12f6        0     1                 .L0 
    1212     12f6        0     1                 $x
    1212     12f6        0     1                 .L0 
    1212     12f6       66     1                 vPortSetupTimerInterrupt
    1214     12f8        0     1                 .L0 
    121a     12fe        0     1                 .L0 
    1224     1308        0     1                 .L0 
    122a     130e        0     1                 .L0 
    1232     1316        0     1                 .L0 
    1232     1316        0     1                 .L0 
    1234     1318        0     1                 .L0 
    1234     1318        0     1                 .L0 
    1236     131a        0     1                 .L0 
    1236     131a        0     1                 .L0 
    1238     131c        0     1                 .L0 
    123c     1320        0     1                 .L0 
    1242     1326        0     1                 .L0 
    124a     132e        0     1                 .L0 
    124c     1330        0     1                 .L0 
    1258     133c        0     1                 .L0 
    125c     1340        0     1                 .L0 
    1274     1358        0     1                 .L0 
    1278     135c        0     1                 .L0 
    1278     135c        0     1                 .L0 
    1278     135c       1a     2         ./src/port.o:(.text.xPortStartScheduler)
    1278     135c        0     1                 .L0 
    1278     135c        0     1                 .L0 
    1278     135c        0     1                 $x
    1278     135c        0     1                 .L0 
    1278     135c       1a     1                 xPortStartScheduler
    127c     1360        0     1                 .L0 
    127e     1362        0     1                 .L0 
    127e     1362        0     1                 .L0 
    1282     1366        0     1                 .L0 
    1286     136a        0     1                 .L0 
    128a     136e        0     1                 .L0 
    128a     136e        0     1                 .L0 
    128e     1372        0     1                 .L0 
    1292     1376        0     1                 .L0 
    1292     1376        0     1                 .L0 
    1300     13e4      14a   256         ./src/portASM.o:(.text.freertos_risc_v_trap_handler)
    1300     13e4        0     1                 .L0 
    1300     13e4        0     1                 $x
    1300     13e4        0     1                 .L0 
    1300     13e4        0     1                 freertos_risc_v_trap_handler
    1304     13e8        0     1                 .L0 
    1306     13ea        0     1                 .L0 
    1308     13ec        0     1                 .L0 
    130a     13ee        0     1                 .L0 
    130c     13f0        0     1                 .L0 
    130e     13f2        0     1                 .L0 
    1310     13f4        0     1                 .L0 
    1312     13f6        0     1                 .L0 
    1314     13f8        0     1                 .L0 
    1316     13fa        0     1                 .L0 
    1318     13fc        0     1                 .L0 
    131a     13fe        0     1                 .L0 
    131c     1400        0     1                 .L0 
    131e     1402        0     1                 .L0 
    1320     1404        0     1                 .L0 
    1322     1406        0     1                 .L0 
    1324     1408        0     1                 .L0 
    1326     140a        0     1                 .L0 
    1328     140c        0     1                 .L0 
    132a     140e        0     1                 .L0 
    132c     1410        0     1                 .L0 
    132e     1412        0     1                 .L0 
    1330     1414        0     1                 .L0 
    1332     1416        0     1                 .L0 
    1334     1418        0     1                 .L0 
    1336     141a        0     1                 .L0 
    1338     141c        0     1                 .L0 
    133a     141e        0     1                 .L0 
    133c     1420        0     1                 .Lpcrel_hi23
    133c     1420        0     1                 .L0 
    1344     1428        0     1                 .L0 
    1346     142a        0     1                 .L0 
    134a     142e        0     1                 .L0 
    134c     1430        0     1                 .Lpcrel_hi24
    134c     1430        0     1                 .L0 
    1354     1438        0     1                 .L0 
    1358     143c        0     1                 .L0 
    135c     1440        0     1                 .L0 
    1360     1444        0     1                 .L0 
    1364     1448        0     1                 asynchronous_interrupt
    1364     1448        0     1                 .L0 
    1364     1448        0     1                 .L0 
    1366     144a        0     1                 .Lpcrel_hi25
    1366     144a        0     1                 .L0 
    136e     1452        0     1                 .L0 
    1370     1454        0     1                 synchronous_exception
    1370     1454        0     1                 .L0 
    1370     1454        0     1                 .L0 
    1372     1456        0     1                 .L0 
    1374     1458        0     1                 .Lpcrel_hi26
    1374     1458        0     1                 .L0 
    137c     1460        0     1                 .L0 
    137e     1462        0     1                 handle_interrupt
    137e     1462        0     1                 .L0 
    137e     1462        0     1                 test_if_mtimer
    137e     1462        0     1                 .L0 
    137e     1462        0     1                 .L0 
    1380     1464        0     1                 .L0 
    1382     1466        0     1                 .L0 
    1386     146a        0     1                 .L0 
    138a     146e        0     1                 .Lpcrel_hi27
    138a     146e        0     1                 .L0 
    1392     1476        0     1                 .Lpcrel_hi28
    1392     1476        0     1                 .L0 
    139a     147e        0     1                 .L0 
    139c     1480        0     1                 .L0 
    139e     1482        0     1                 .L0 
    13a0     1484        0     1                 .L0 
    13a2     1486        0     1                 .L0 
    13a4     1488        0     1                 .L0 
    13a6     148a        0     1                 .Lpcrel_hi29
    13a6     148a        0     1                 .L0 
    13ae     1492        0     1                 .L0 
    13b2     1496        0     1                 .L0 
    13b6     149a        0     1                 .L0 
    13ba     149e        0     1                 .L0 
    13bc     14a0        0     1                 .L0 
    13c0     14a4        0     1                 .L0 
    13c4     14a8        0     1                 .L0 
    13c6     14aa        0     1                 .L0 
    13ca     14ae        0     1                 .L0 
    13cc     14b0        0     1                 application_interrupt_handler
    13cc     14b0        0     1                 .L0 
    13cc     14b0        0     1                 .L0 
    13d0     14b4        0     1                 .L0 
    13d2     14b6        0     1                 handle_exception
    13d2     14b6        0     1                 .L0 
    13d2     14b6        0     1                 .L0 
    13d4     14b8        0     1                 .L0 
    13d8     14bc        0     1                 .L0 
    13dc     14c0        0     1                 .L0 
    13de     14c2        0     1                 application_exception_handler
    13de     14c2        0     1                 .L0 
    13de     14c2        0     1                 .L0 
    13e2     14c6        0     1                 .L0 
    13e4     14c8        0     1                 processed_source
    13e4     14c8        0     1                 .L0 
    13e4     14c8        0     1                 .Lpcrel_hi30
    13e4     14c8        0     1                 .L0 
    13ec     14d0        0     1                 .L0 
    13f0     14d4        0     1                 .L0 
    13f2     14d6        0     1                 .L0 
    13f6     14da        0     1                 .L0 
    13f8     14dc        0     1                 .L0 
    13fc     14e0        0     1                 .L0 
    13fe     14e2        0     1                 .Lpcrel_hi31
    13fe     14e2        0     1                 .L0 
    1406     14ea        0     1                 .L0 
    140a     14ee        0     1                 .L0 
    140c     14f0        0     1                 .L0 
    140e     14f2        0     1                 .L0 
    1410     14f4        0     1                 .L0 
    1412     14f6        0     1                 .L0 
    1414     14f8        0     1                 .L0 
    1416     14fa        0     1                 .L0 
    1418     14fc        0     1                 .L0 
    141a     14fe        0     1                 .L0 
    141c     1500        0     1                 .L0 
    141e     1502        0     1                 .L0 
    1420     1504        0     1                 .L0 
    1422     1506        0     1                 .L0 
    1424     1508        0     1                 .L0 
    1426     150a        0     1                 .L0 
    1428     150c        0     1                 .L0 
    142a     150e        0     1                 .L0 
    142c     1510        0     1                 .L0 
    142e     1512        0     1                 .L0 
    1430     1514        0     1                 .L0 
    1432     1516        0     1                 .L0 
    1434     1518        0     1                 .L0 
    1436     151a        0     1                 .L0 
    1438     151c        0     1                 .L0 
    143a     151e        0     1                 .L0 
    143c     1520        0     1                 .L0 
    143e     1522        0     1                 .L0 
    1440     1524        0     1                 .L0 
    1442     1526        0     1                 .L0 
    1446     152a        0     1                 .L0 
    144a     152e        0     1                 .L0 
    144a     152e       aa     2         ./src/queue.o:(.text.xQueueGenericCreate)
    144a     152e        0     1                 .L0 
    144a     152e        0     1                 .L0 
    144a     152e        0     1                 $x
    144a     152e        0     1                 .L0 
    144a     152e       aa     1                 xQueueGenericCreate
    144c     1530        0     1                 .L0 
    1450     1534        0     1                 .L0 
    1450     1534        0     1                 .L0 
    1452     1536        0     1                 .L0 
    145a     153e        0     1                 .L0 
    1460     1544        0     1                 .L0 
    1468     154c        0     1                 .L0 
    1468     154c        0     1                 .L0 
    146a     154e        0     1                 .L0 
    146c     1550        0     1                 .L0 
    146c     1550        0     1                 .L0 
    1470     1554        0     1                 .L0 
    1472     1556        0     1                 .L0 
    1472     1556        0     1                 .L0 
    1474     1558        0     1                 .L0 
    1474     1558        0     1                 .L0 
    1480     1564        0     1                 .L0 
    1482     1566        0     1                 .L0 
    1484     1568        0     1                 .L0 
    1486     156a        0     1                 .L0 
    1486     156a        0     1                 .L0 
    1498     157c        0     1                 .L0 
    149a     157e        0     1                 .L0 
    149c     1580        0     1                 .L0 
    149e     1582        0     1                 .L0 
    14a2     1586        0     1                 .L0 
    14a4     1588        0     1                 .L0 
    14a6     158a        0     1                 .L0 
    14aa     158e        0     1                 .L0 
    14ac     1590        0     1                 .L0 
    14ae     1592        0     1                 .L0 
    14b2     1596        0     1                 .L0 
    14b4     1598        0     1                 .L0 
    14b8     159c        0     1                 .L0 
    14bc     15a0        0     1                 .L0 
    14c0     15a4        0     1                 .L0 
    14c6     15aa        0     1                 .L0 
    14c6     15aa        0     1                 .L0 
    14ca     15ae        0     1                 .L0 
    14ca     15ae        0     1                 .L0 
    14cc     15b0        0     1                 .L0 
    14cc     15b0        0     1                 .L0 
    14d0     15b4        0     1                 .L0 
    14d2     15b6        0     1                 .L0 
    14d2     15b6        0     1                 .L0 
    14de     15c2        0     1                 .L0 
    14e2     15c6        0     1                 .L0 
    14e2     15c6        0     1                 .L0 
    14e2     15c6        0     1                 .L0 
    14e4     15c8        0     1                 .L0 
    14e4     15c8        0     1                 .L0 
    14ee     15d2        0     1                 .L0 
    14ee     15d2        0     1                 .L0 
    14f0     15d4        0     1                 .L0 
    14f0     15d4        0     1                 .L0 
    14f0     15d4        0     1                 .L0 
    14f2     15d6        0     1                 .L0 
    14f2     15d6        0     1                 .L0 
    14f2     15d6        0     1                 .L0 
    14f4     15d8        0     1                 .L0 
    14f4     15d8        0     1                 .L0 
    14f4     15d8       c8     2         ./src/queue.o:(.text.prvUnlockQueue)
    14f4     15d8       c8     1                 prvUnlockQueue
    14f4     15d8        0     1                 .L0 
    14f4     15d8        0     1                 .L0 
    14f4     15d8        0     1                 $x
    14f4     15d8        0     1                 .L0 
    1502     15e6        0     1                 .L0 
    1510     15f4        0     1                 .L0 
    1516     15fa        0     1                 .L0 
    1516     15fa        0     1                 .L0 
    151a     15fe        0     1                 .L0 
    151e     1602        0     1                 .L0 
    1526     160a        0     1                 .L0 
    1526     160a        0     1                 .L0 
    1526     160a        0     1                 .L0 
    152c     1610        0     1                 .L0 
    1530     1614        0     1                 .L0 
    1530     1614        0     1                 .L0 
    1532     1616        0     1                 .L0 
    1534     1618        0     1                 .L0 
    153a     161e        0     1                 .L0 
    153a     161e        0     1                 .L0 
    153c     1620        0     1                 .L0 
    1540     1624        0     1                 .L0 
    1540     1624        0     1                 .L0 
    1542     1626        0     1                 .L0 
    1542     1626        0     1                 .L0 
    1544     1628        0     1                 .L0 
    1548     162c        0     1                 .L0 
    1548     162c        0     1                 .L0 
    1554     1638        0     1                 .L0 
    1558     163c        0     1                 .L0 
    1558     163c        0     1                 .L0 
    156a     164e        0     1                 .L0 
    156a     164e        0     1                 .L0 
    156e     1652        0     1                 .L0 
    1572     1656        0     1                 .L0 
    157a     165e        0     1                 .L0 
    157a     165e        0     1                 .L0 
    157a     165e        0     1                 .L0 
    1580     1664        0     1                 .L0 
    1584     1668        0     1                 .L0 
    1584     1668        0     1                 .L0 
    1586     166a        0     1                 .L0 
    1588     166c        0     1                 .L0 
    158e     1672        0     1                 .L0 
    158e     1672        0     1                 .L0 
    1590     1674        0     1                 .L0 
    1594     1678        0     1                 .L0 
    1594     1678        0     1                 .L0 
    1596     167a        0     1                 .L0 
    1596     167a        0     1                 .L0 
    1598     167c        0     1                 .L0 
    159c     1680        0     1                 .L0 
    159c     1680        0     1                 .L0 
    15a8     168c        0     1                 .L0 
    15ac     1690        0     1                 .L0 
    15ac     1690        0     1                 .L0 
    15b6     169a        0     1                 .L0 
    15b8     169c        0     1                 .L0 
    15bc     16a0        0     1                 .L0 
    15bc     16a0        0     1                 .L0 
    15bc     16a0      186     2         ./src/queue.o:(.text.xQueueReceive)
    15bc     16a0        0     1                 .L0 
    15bc     16a0        0     1                 .L0 
    15bc     16a0        0     1                 $x
    15bc     16a0        0     1                 .L0 
    15bc     16a0      186     1                 xQueueReceive
    15ec     16d0        0     1                 .L0 
    15ec     16d0        0     1                 .L0 
    15ec     16d0        0     1                 .L0 
    15f0     16d4        0     1                 .L0 
    15f0     16d4        0     1                 .L0 
    1600     16e4        0     1                 .L0 
    1600     16e4        0     1                 .L0 
    1602     16e6        0     1                 .L0 
    1602     16e6        0     1                 .L0 
    1604     16e8        0     1                 .L0 
    1604     16e8        0     1                 .L0 
    1606     16ea        0     1                 .L0 
    1608     16ec        0     1                 .L0 
    160a     16ee        0     1                 .L0 
    160c     16f0        0     1                 .L0 
    1610     16f4        0     1                 .L0 
    1614     16f8        0     1                 .L0 
    1616     16fa        0     1                 .L0 
    1618     16fc        0     1                 .L0 
    1618     16fc        0     1                 .L0 
    161a     16fe        0     1                 .L0 
    1620     1704        0     1                 .L0 
    1620     1704        0     1                 .L0 
    1620     1704        0     1                 .L0 
    1622     1706        0     1                 .L0 
    1622     1706        0     1                 .L0 
    1624     1708        0     1                 .L0 
    1626     170a        0     1                 .L0 
    1628     170c        0     1                 .L0 
    162e     1712        0     1                 .L0 
    162e     1712        0     1                 .L0 
    1630     1714        0     1                 .L0 
    1634     1718        0     1                 .L0 
    1634     1718        0     1                 .L0 
    1642     1726        0     1                 .L0 
    1642     1726        0     1                 .L0 
    1648     172c        0     1                 .L0 
    1648     172c        0     1                 .L0 
    1648     172c        0     1                 .L0 
    164a     172e        0     1                 .L0 
    164c     1730        0     1                 .L0 
    164e     1732        0     1                 .L0 
    1652     1736        0     1                 .L0 
    1658     173c        0     1                 .L0 
    1658     173c        0     1                 .L0 
    1658     173c        0     1                 .L0 
    1660     1744        0     1                 .L0 
    1660     1744        0     1                 .L0 
    1660     1744        0     1                 .L0 
    1668     174c        0     1                 .L0 
    1670     1754        0     1                 .L0 
    1670     1754        0     1                 .L0 
    1676     175a        0     1                 .L0 
    1676     175a        0     1                 .L0 
    1678     175c        0     1                 .L0 
    167a     175e        0     1                 .L0 
    167c     1760        0     1                 .L0 
    167c     1760        0     1                 .L0 
    167c     1760        0     1                 .L0 
    1688     176c        0     1                 .L0 
    168c     1770        0     1                 .L0 
    168c     1770        0     1                 .L0 
    168e     1772        0     1                 .L0 
    168e     1772        0     1                 .L0 
    169e     1782        0     1                 .L0 
    16a2     1786        0     1                 .L0 
    16a6     178a        0     1                 .L0 
    16aa     178e        0     1                 .L0 
    16ae     1792        0     1                 .L0 
    16ae     1792        0     1                 .L0 
    16b4     1798        0     1                 .L0 
    16b4     1798        0     1                 .L0 
    16bc     17a0        0     1                 .L0 
    16bc     17a0        0     1                 .L0 
    16be     17a2        0     1                 .L0 
    16c2     17a6        0     1                 .L0 
    16c2     17a6        0     1                 .L0 
    16c4     17a8        0     1                 .L0 
    16c4     17a8        0     1                 .L0 
    16cc     17b0        0     1                 .L0 
    16ce     17b2        0     1                 .L0 
    16d2     17b6        0     1                 .L0 
    16d8     17bc        0     1                 .L0 
    16d8     17bc        0     1                 .L0 
    16d8     17bc        0     1                 .L0 
    16dc     17c0        0     1                 .L0 
    16e0     17c4        0     1                 .L0 
    16e4     17c8        0     1                 .L0 
    16e4     17c8        0     1                 .L0 
    16e8     17cc        0     1                 .L0 
    16ee     17d2        0     1                 .L0 
    16ee     17d2        0     1                 .L0 
    16f4     17d8        0     1                 .L0 
    16f4     17d8        0     1                 .L0 
    16f4     17d8        0     1                 .L0 
    16fc     17e0        0     1                 .L0 
    16fe     17e2        0     1                 .L0 
    1700     17e4        0     1                 .L0 
    1700     17e4        0     1                 .L0 
    1702     17e6        0     1                 .L0 
    1702     17e6        0     1                 .L0 
    1706     17ea        0     1                 .L0 
    1706     17ea        0     1                 .L0 
    1708     17ec        0     1                 .L0 
    1708     17ec        0     1                 .L0 
    170a     17ee        0     1                 .L0 
    170a     17ee        0     1                 .L0 
    170a     17ee        0     1                 .L0 
    170e     17f2        0     1                 .L0 
    170e     17f2        0     1                 .L0 
    1710     17f4        0     1                 .L0 
    1710     17f4        0     1                 .L0 
    1710     17f4        0     1                 .L0 
    1712     17f6        0     1                 .L0 
    1716     17fa        0     1                 .L0 
    1716     17fa        0     1                 .L0 
    171a     17fe        0     1                 .L0 
    171a     17fe        0     1                 .L0 
    171c     1800        0     1                 .L0 
    171c     1800        0     1                 .L0 
    1720     1804        0     1                 .L0 
    1724     1808        0     1                 .L0 
    1726     180a        0     1                 .L0 
    1726     180a        0     1                 .L0 
    1728     180c        0     1                 .L0 
    1728     180c        0     1                 .L0 
    1730     1814        0     1                 .L0 
    1730     1814        0     1                 .L0 
    1732     1816        0     1                 .L0 
    173c     1820        0     1                 .L0 
    173e     1822        0     1                 .L0 
    1742     1826        0     1                 .L0 
    1742     1826        0     1                 .L0 
    1742     1826       6c     2         ./src/queue.o:(.text.vQueueWaitForMessageRestricted)
    1742     1826        0     1                 .L0 
    1742     1826        0     1                 .L0 
    1742     1826        0     1                 $x
    1742     1826        0     1                 .L0 
    1742     1826       6c     1                 vQueueWaitForMessageRestricted
    1756     183a        0     1                 .L0 
    175e     1842        0     1                 .L0 
    1762     1846        0     1                 .L0 
    1766     184a        0     1                 .L0 
    176a     184e        0     1                 .L0 
    176a     184e        0     1                 .L0 
    1774     1858        0     1                 .L0 
    1776     185a        0     1                 .L0 
    1778     185c        0     1                 .L0 
    1778     185c        0     1                 .L0 
    1778     185c        0     1                 .L0 
    177a     185e        0     1                 .L0 
    177a     185e        0     1                 .L0 
    177e     1862        0     1                 .L0 
    1782     1866        0     1                 .L0 
    1786     186a        0     1                 .L0 
    1786     186a        0     1                 .L0 
    178c     1870        0     1                 .L0 
    178c     1870        0     1                 .L0 
    1790     1874        0     1                 .L0 
    1792     1876        0     1                 .L0 
    1794     1878        0     1                 .L0 
    1796     187a        0     1                 .L0 
    179a     187e        0     1                 .L0 
    17a0     1884        0     1                 .L0 
    17a0     1884        0     1                 .L0 
    17a2     1886        0     1                 .L0 
    17a4     1888        0     1                 .L0 
    17a4     1888        0     1                 .L0 
    17aa     188e        0     1                 .L0 
    17ac     1890        0     1                 .L0 
    17ac     1890        0     1                 .L0 
    17ae     1892        0     1                 .L0 
    17ae     1892        0     1                 .L0 
    17ae     1892      232     2         ./src/tasks.o:(.text.xTaskCreate)
    17ae     1892        0     1                 .L0 
    17ae     1892        0     1                 .L0 
    17ae     1892        0     1                 $x
    17ae     1892        0     1                 .L0 
    17ae     1892      232     1                 xTaskCreate
    17d2     18b6        0     1                 .L0 
    17d2     18b6        0     1                 .L0 
    17d6     18ba        0     1                 .L0 
    17dc     18c0        0     1                 .L0 
    17dc     18c0        0     1                 .L0 
    17de     18c2        0     1                 .L0 
    17e0     18c4        0     1                 .L0 
    17e0     18c4        0     1                 .L0 
    17e8     18cc        0     1                 .L0 
    17e8     18cc        0     1                 .L0 
    17ea     18ce        0     1                 .L0 
    17ec     18d0        0     1                 .L0 
    17ec     18d0        0     1                 .L0 
    17f6     18da        0     1                 .L0 
    17fc     18e0        0     1                 .L0 
    17fc     18e0        0     1                 .L0 
    1802     18e6        0     1                 .L0 
    1802     18e6        0     1                 .L0 
    1802     18e6        0     1                 .L0 
    1804     18e8        0     1                 .L0 
    1806     18ea        0     1                 .L0 
    1806     18ea        0     1                 .L0 
    1806     18ea        0     1                 .L0 
    1808     18ec        0     1                 .L0 
    180a     18ee        0     1                 .L0 
    180e     18f2        0     1                 .L0 
    180e     18f2        0     1                 .L0 
    180e     18f2        0     1                 .L0 
    1812     18f6        0     1                 .L0 
    181c     1900        0     1                 .L0 
    1820     1904        0     1                 .L0 
    1826     190a        0     1                 .L0 
    1826     190a        0     1                 .L0 
    182a     190e        0     1                 .L0 
    182a     190e        0     1                 .L0 
    182c     1910        0     1                 .L0 
    182c     1910        0     1                 .L0 
    1832     1916        0     1                 .L0 
    1832     1916        0     1                 .L0 
    1832     1916        0     1                 .L0 
    1836     191a        0     1                 .L0 
    183a     191e        0     1                 .L0 
    183e     1922        0     1                 .L0 
    183e     1922        0     1                 .L0 
    1840     1924        0     1                 .L0 
    1842     1926        0     1                 .L0 
    1842     1926        0     1                 .L0 
    184a     192e        0     1                 .L0 
    184a     192e        0     1                 .L0 
    184a     192e        0     1                 .L0 
    184e     1932        0     1                 .L0 
    184e     1932        0     1                 .L0 
    1850     1934        0     1                 .L0 
    1854     1938        0     1                 .L0 
    1854     1938        0     1                 .L0 
    1858     193c        0     1                 .L0 
    185c     1940        0     1                 .L0 
    185c     1940        0     1                 .L0 
    1860     1944        0     1                 .L0 
    1860     1944        0     1                 .L0 
    1864     1948        0     1                 .L0 
    1866     194a        0     1                 .L0 
    1866     194a        0     1                 .L0 
    186e     1952        0     1                 .L0 
    1874     1958        0     1                 .L0 
    1878     195c        0     1                 .L0 
    1882     1966        0     1                 .L0 
    1882     1966        0     1                 .L0 
    1886     196a        0     1                 .L0 
    188a     196e        0     1                 .L0 
    188e     1972        0     1                 .L0 
    188e     1972        0     1                 .L0 
    188e     1972        0     1                 .L0 
    1892     1976        0     1                 .L0 
    1892     1976        0     1                 .L0 
    18a4     1988        0     1                 .L0 
    18ac     1990        0     1                 .L0 
    18ae     1992        0     1                 .L0 
    18b2     1996        0     1                 .L0 
    18be     19a2        0     1                 .L0 
    18be     19a2        0     1                 .L0 
    18c2     19a6        0     1                 .L0 
    18c4     19a8        0     1                 .L0 
    18cc     19b0        0     1                 .L0 
    18ce     19b2        0     1                 .L0 
    18d6     19ba        0     1                 .L0 
    18d8     19bc        0     1                 .L0 
    18dc     19c0        0     1                 .L0 
    18e0     19c4        0     1                 .L0 
    18e6     19ca        0     1                 .L0 
    18e6     19ca        0     1                 .L0 
    18ea     19ce        0     1                 .L0 
    18f0     19d4        0     1                 .L0 
    18f4     19d8        0     1                 .L0 
    18fa     19de        0     1                 .L0 
    18fa     19de        0     1                 .L0 
    18fa     19de        0     1                 .L0 
    18fe     19e2        0     1                 .L0 
    18fe     19e2        0     1                 .L0 
    1900     19e4        0     1                 .L0 
    1904     19e8        0     1                 .L0 
    1908     19ec        0     1                 .L0 
    1910     19f4        0     1                 .L0 
    1910     19f4        0     1                 .L0 
    191c     1a00        0     1                 .L0 
    191c     1a00        0     1                 .L0 
    1928     1a0c        0     1                 .L0 
    1928     1a0c        0     1                 .L0 
    1930     1a14        0     1                 .L0 
    1938     1a1c        0     1                 .L0 
    1938     1a1c        0     1                 .L0 
    1938     1a1c        0     1                 .L0 
    1946     1a2a        0     1                 .L0 
    195a     1a3e        0     1                 .L0 
    195a     1a3e        0     1                 .L0 
    1964     1a48        0     1                 .L0 
    197c     1a60        0     1                 .L0 
    198a     1a6e        0     1                 .L0 
    198a     1a6e        0     1                 .L0 
    1992     1a76        0     1                 .L0 
    1992     1a76        0     1                 .L0 
    1996     1a7a        0     1                 .L0 
    1996     1a7a        0     1                 .L0 
    199e     1a82        0     1                 .L0 
    19a2     1a86        0     1                 .L0 
    19a2     1a86        0     1                 .L0 
    19ac     1a90        0     1                 .L0 
    19ae     1a92        0     1                 .L0 
    19bc     1aa0        0     1                 .L0 
    19c0     1aa4        0     1                 .L0 
    19c4     1aa8        0     1                 .L0 
    19c4     1aa8        0     1                 .L0 
    19c4     1aa8        0     1                 .L0 
    19d2     1ab6        0     1                 .L0 
    19d2     1ab6        0     1                 .L0 
    19d6     1aba        0     1                 .L0 
    19dc     1ac0        0     1                 .L0 
    19e0     1ac4        0     1                 .L0 
    19e0     1ac4        0     1                 .L0 
    19e0     1ac4       a8     2         ./src/tasks.o:(.text.vTaskDelay)
    19e0     1ac4        0     1                 .L0 
    19e0     1ac4        0     1                 .L0 
    19e0     1ac4        0     1                 $x
    19e0     1ac4        0     1                 .L0 
    19e0     1ac4       a8     1                 vTaskDelay
    19e4     1ac8        0     1                 .L0 
    19f2     1ad6        0     1                 .L0 
    19f2     1ad6        0     1                 .L0 
    19fa     1ade        0     1                 .L0 
    19fc     1ae0        0     1                 .L0 
    1a00     1ae4        0     1                 .L0 
    1a00     1ae4        0     1                 .L0 
    1a00     1ae4        0     1                 .L0 
    1a08     1aec        0     1                 .L0 
    1a08     1aec        0     1                 .L0 
    1a10     1af4        0     1                 .L0 
    1a10     1af4        0     1                 .L0 
    1a18     1afc        0     1                 .L0 
    1a18     1afc        0     1                 .L0 
    1a20     1b04        0     1                 .L0 
    1a22     1b06        0     1                 .L0 
    1a26     1b0a        0     1                 .L0 
    1a26     1b0a        0     1                 .L0 
    1a28     1b0c        0     1                 .L0 
    1a3e     1b22        0     1                 .L0 
    1a3e     1b22        0     1                 .L0 
    1a42     1b26        0     1                 .L0 
    1a44     1b28        0     1                 .L0 
    1a44     1b28        0     1                 .L0 
    1a46     1b2a        0     1                 .L0 
    1a4c     1b30        0     1                 .L0 
    1a50     1b34        0     1                 .L0 
    1a56     1b3a        0     1                 .L0 
    1a56     1b3a        0     1                 .L0 
    1a58     1b3c        0     1                 .L0 
    1a58     1b3c        0     1                 .L0 
    1a5e     1b42        0     1                 .L0 
    1a5e     1b42        0     1                 .L0 
    1a66     1b4a        0     1                 .L0 
    1a6a     1b4e        0     1                 .L0 
    1a6e     1b52        0     1                 .L0 
    1a6e     1b52        0     1                 .L0 
    1a6e     1b52        0     1                 .L0 
    1a70     1b54        0     1                 .L0 
    1a70     1b54        0     1                 .L0 
    1a7c     1b60        0     1                 .L0 
    1a80     1b64        0     1                 .L0 
    1a82     1b66        0     1                 .L0 
    1a82     1b66        0     1                 .L0 
    1a86     1b6a        0     1                 .L0 
    1a88     1b6c        0     1                 .L0 
    1a88     1b6c        0     1                 .L0 
    1a88     1b6c       10     2         ./src/tasks.o:(.text.vTaskSuspendAll)
    1a88     1b6c        0     1                 .L0 
    1a88     1b6c        0     1                 .L0 
    1a88     1b6c        0     1                 $x
    1a88     1b6c        0     1                 .L0 
    1a88     1b6c       10     1                 vTaskSuspendAll
    1a90     1b74        0     1                 .L0 
    1a92     1b76        0     1                 .L0 
    1a96     1b7a        0     1                 .L0 
    1a96     1b7a        0     1                 .L0 
    1a98     1b7c        0     1                 .L0 
    1a98     1b7c        0     1                 .L0 
    1a98     1b7c      188     2         ./src/tasks.o:(.text.xTaskResumeAll)
    1a98     1b7c        0     1                 .L0 
    1a98     1b7c        0     1                 .L0 
    1a98     1b7c        0     1                 $x
    1a98     1b7c        0     1                 .L0 
    1a98     1b7c      188     1                 xTaskResumeAll
    1aa4     1b88        0     1                 .L0 
    1ab6     1b9a        0     1                 .L0 
    1ab6     1b9a        0     1                 .L0 
    1abe     1ba2        0     1                 .L0 
    1ac0     1ba4        0     1                 .L0 
    1ac4     1ba8        0     1                 .L0 
    1ac8     1bac        0     1                 .L0 
    1aca     1bae        0     1                 .L0 
    1aca     1bae        0     1                 .L0 
    1acc     1bb0        0     1                 .L0 
    1acc     1bb0        0     1                 .L0 
    1acc     1bb0        0     1                 .L0 
    1ad8     1bbc        0     1                 .L0 
    1adc     1bc0        0     1                 .L0 
    1adc     1bc0        0     1                 .L0 
    1ae6     1bca        0     1                 .L0 
    1aea     1bce        0     1                 .L0 
    1aea     1bce        0     1                 .L0 
    1aea     1bce        0     1                 .L0 
    1af2     1bd6        0     1                 .L0 
    1af4     1bd8        0     1                 .L0 
    1afc     1be0        0     1                 .L0 
    1afe     1be2        0     1                 .L0 
    1b1a     1bfe        0     1                 .L0 
    1b1a     1bfe        0     1                 .L0 
    1b1a     1bfe        0     1                 .L0 
    1b1e     1c02        0     1                 .L0 
    1b20     1c04        0     1                 .L0 
    1b20     1c04        0     1                 .L0 
    1b20     1c04        0     1                 .L0 
    1b26     1c0a        0     1                 .L0 
    1b26     1c0a        0     1                 .L0 
    1b2c     1c10        0     1                 .L0 
    1b34     1c18        0     1                 .L0 
    1b36     1c1a        0     1                 .L0 
    1b3e     1c22        0     1                 .L0 
    1b42     1c26        0     1                 .L0 
    1b42     1c26        0     1                 .L0 
    1b4c     1c30        0     1                 .L0 
    1b4c     1c30        0     1                 .L0 
    1b4c     1c30        0     1                 .L0 
    1b4c     1c30        0     1                 .L0 
    1b50     1c34        0     1                 .L0 
    1b52     1c36        0     1                 .L0 
    1b5a     1c3e        0     1                 .L0 
    1b5c     1c40        0     1                 .L0 
    1b64     1c48        0     1                 .L0 
    1b68     1c4c        0     1                 .L0 
    1b68     1c4c        0     1                 .L0 
    1b72     1c56        0     1                 .L0 
    1b72     1c56        0     1                 .L0 
    1b78     1c5c        0     1                 .L0 
    1b80     1c64        0     1                 .L0 
    1b80     1c64        0     1                 .L0 
    1b8a     1c6e        0     1                 .L0 
    1b98     1c7c        0     1                 .L0 
    1ba8     1c8c        0     1                 .L0 
    1baa     1c8e        0     1                 .L0 
    1bae     1c92        0     1                 .L0 
    1bb0     1c94        0     1                 .L0 
    1bb4     1c98        0     1                 .L0 
    1bba     1c9e        0     1                 .L0 
    1bba     1c9e        0     1                 .L0 
    1bbc     1ca0        0     1                 .L0 
    1bbc     1ca0        0     1                 .L0 
    1bc6     1caa        0     1                 .L0 
    1bc8     1cac        0     1                 .L0 
    1bd2     1cb6        0     1                 .L0 
    1bd2     1cb6        0     1                 .L0 
    1bd4     1cb8        0     1                 .L0 
    1bdc     1cc0        0     1                 .L0 
    1bdc     1cc0        0     1                 .L0 
    1bdc     1cc0        0     1                 .L0 
    1be4     1cc8        0     1                 .L0 
    1be4     1cc8        0     1                 .L0 
    1be6     1cca        0     1                 .L0 
    1bee     1cd2        0     1                 .L0 
    1bee     1cd2        0     1                 .L0 
    1bf0     1cd4        0     1                 .L0 
    1bf2     1cd6        0     1                 .L0 
    1bf2     1cd6        0     1                 .L0 
    1bf4     1cd8        0     1                 .L0 
    1bf4     1cd8        0     1                 .L0 
    1bf6     1cda        0     1                 .L0 
    1bfc     1ce0        0     1                 .L0 
    1bfc     1ce0        0     1                 .L0 
    1c04     1ce8        0     1                 .L0 
    1c04     1ce8        0     1                 .L0 
    1c04     1ce8        0     1                 .L0 
    1c0c     1cf0        0     1                 .L0 
    1c10     1cf4        0     1                 .L0 
    1c10     1cf4        0     1                 .L0 
    1c20     1d04        0     1                 .L0 
    1c20     1d04        0     1                 .L0 
    1c20     1d04        0     1                 .L0 
    1c20     1d04       7c     2         ./src/tasks.o:(.text.vTaskStartScheduler)
    1c20     1d04        0     1                 .L0 
    1c20     1d04        0     1                 .L0 
    1c20     1d04        0     1                 $x
    1c20     1d04        0     1                 .L0 
    1c20     1d04       7c     1                 vTaskStartScheduler
    1c26     1d0a        0     1                 .L0 
    1c26     1d0a        0     1                 .L0 
    1c32     1d16        0     1                 .L0 
    1c3a     1d1e        0     1                 .L0 
    1c3a     1d1e        0     1                 .L0 
    1c40     1d24        0     1                 .L0 
    1c40     1d24        0     1                 .L0 
    1c48     1d2c        0     1                 .L0 
    1c5c     1d40        0     1                 .L0 
    1c5c     1d40        0     1                 .L0 
    1c5e     1d42        0     1                 .L0 
    1c5e     1d42        0     1                 .L0 
    1c62     1d46        0     1                 .L0 
    1c62     1d46        0     1                 .L0 
    1c64     1d48        0     1                 .L0 
    1c64     1d48        0     1                 .L0 
    1c68     1d4c        0     1                 .L0 
    1c6c     1d50        0     1                 .L0 
    1c76     1d5a        0     1                 .L0 
    1c80     1d64        0     1                 .L0 
    1c88     1d6c        0     1                 .L0 
    1c8c     1d70        0     1                 .L0 
    1c8c     1d70        0     1                 .L0 
    1c8c     1d70        0     1                 .L0 
    1c98     1d7c        0     1                 .L0 
    1c9c     1d80        0     1                 .L0 
    1c9c     1d80        0     1                 .L0 
    1c9c     1d80      184     2         ./src/tasks.o:(.text.xTaskIncrementTick)
    1c9c     1d80        0     1                 .L0 
    1c9c     1d80        0     1                 .L0 
    1c9c     1d80        0     1                 $x
    1c9c     1d80        0     1                 .L0 
    1c9c     1d80      184     1                 xTaskIncrementTick
    1ca4     1d88        0     1                 .L0 
    1ca6     1d8a        0     1                 .L0 
    1cb6     1d9a        0     1                 .L0 
    1cb6     1d9a        0     1                 .L0 
    1cb6     1d9a        0     1                 .L0 
    1cb8     1d9c        0     1                 .L0 
    1cb8     1d9c        0     1                 .L0 
    1cb8     1d9c        0     1                 .L0 
    1cc0     1da4        0     1                 .L0 
    1cc4     1da8        0     1                 .L0 
    1cc4     1da8        0     1                 .L0 
    1cc8     1dac        0     1                 .L0 
    1ccc     1db0        0     1                 .L0 
    1ccc     1db0        0     1                 .L0 
    1cd4     1db8        0     1                 .L0 
    1ce8     1dcc        0     1                 .L0 
    1cf2     1dd6        0     1                 .L0 
    1cf2     1dd6        0     1                 .L0 
    1cf8     1ddc        0     1                 .L0 
    1cfa     1dde        0     1                 .L0 
    1d04     1de8        0     1                 .L0 
    1d04     1de8        0     1                 .L0 
    1d06     1dea        0     1                 .L0 
    1d0e     1df2        0     1                 .L0 
    1d0e     1df2        0     1                 .L0 
    1d0e     1df2        0     1                 .L0 
    1d1e     1e02        0     1                 .L0 
    1d22     1e06        0     1                 .L0 
    1d24     1e08        0     1                 .L0 
    1d26     1e0a        0     1                 .L0 
    1d26     1e0a        0     1                 .L0 
    1d32     1e16        0     1                 .L0 
    1d34     1e18        0     1                 .L0 
    1d40     1e24        0     1                 .L0 
    1d40     1e24        0     1                 .L0 
    1d40     1e24        0     1                 .L0 
    1d46     1e2a        0     1                 .L0 
    1d48     1e2c        0     1                 .L0 
    1d48     1e2c        0     1                 .L0 
    1d48     1e2c        0     1                 .L0 
    1d50     1e34        0     1                 .L0 
    1d50     1e34        0     1                 .L0 
    1d52     1e36        0     1                 .L0 
    1d52     1e36        0     1                 .L0 
    1d56     1e3a        0     1                 .L0 
    1d56     1e3a        0     1                 .L0 
    1d58     1e3c        0     1                 .L0 
    1d5c     1e40        0     1                 .L0 
    1d64     1e48        0     1                 .L0 
    1d66     1e4a        0     1                 .L0 
    1d66     1e4a        0     1                 .L0 
    1d6a     1e4e        0     1                 .L0 
    1d6a     1e4e        0     1                 .L0 
    1d6e     1e52        0     1                 .L0 
    1d72     1e56        0     1                 .L0 
    1d72     1e56        0     1                 .L0 
    1d7c     1e60        0     1                 .L0 
    1d7c     1e60        0     1                 .L0 
    1d7e     1e62        0     1                 .L0 
    1d7e     1e62        0     1                 .L0 
    1d80     1e64        0     1                 .L0 
    1d80     1e64        0     1                 .L0 
    1d8c     1e70        0     1                 .L0 
    1d8e     1e72        0     1                 .L0 
    1d8e     1e72        0     1                 .L0 
    1d92     1e76        0     1                 .L0 
    1d92     1e76        0     1                 .L0 
    1d96     1e7a        0     1                 .L0 
    1d9a     1e7e        0     1                 .L0 
    1d9a     1e7e        0     1                 .L0 
    1da4     1e88        0     1                 .L0 
    1da4     1e88        0     1                 .L0 
    1da4     1e88        0     1                 .L0 
    1db2     1e96        0     1                 .L0 
    1db2     1e96        0     1                 .L0 
    1dbc     1ea0        0     1                 .L0 
    1dca     1eae        0     1                 .L0 
    1dda     1ebe        0     1                 .L0 
    1ddc     1ec0        0     1                 .L0 
    1de0     1ec4        0     1                 .L0 
    1de2     1ec6        0     1                 .L0 
    1de6     1eca        0     1                 .L0 
    1de8     1ecc        0     1                 .L0 
    1dea     1ece        0     1                 .L0 
    1dea     1ece        0     1                 .L0 
    1dec     1ed0        0     1                 .L0 
    1dec     1ed0        0     1                 .L0 
    1df4     1ed8        0     1                 .L0 
    1df4     1ed8        0     1                 .L0 
    1df4     1ed8        0     1                 .L0 
    1e0a     1eee        0     1                 .L0 
    1e0e     1ef2        0     1                 .L0 
    1e10     1ef4        0     1                 .L0 
    1e10     1ef4        0     1                 .L0 
    1e18     1efc        0     1                 .L0 
    1e1c     1f00        0     1                 .L0 
    1e1c     1f00        0     1                 .L0 
    1e1e     1f02        0     1                 .L0 
    1e20     1f04        0     1                 .L0 
    1e20     1f04        0     1                 .L0 
    1e20     1f04        a     2         ./src/tasks.o:(.text.xTaskGetTickCount)
    1e20     1f04        0     1                 .L0 
    1e20     1f04        0     1                 .L0 
    1e20     1f04        0     1                 $x
    1e20     1f04        0     1                 .L0 
    1e20     1f04        a     1                 xTaskGetTickCount
    1e28     1f0c        0     1                 .L0 
    1e28     1f0c        0     1                 .L0 
    1e2a     1f0e        0     1                 .L0 
    1e2a     1f0e        0     1                 .L0 
    1e2a     1f0e       c0     2         ./src/tasks.o:(.text.vTaskSwitchContext)
    1e2a     1f0e        0     1                 .L0 
    1e2a     1f0e        0     1                 .L0 
    1e2a     1f0e        0     1                 $x
    1e2a     1f0e        0     1                 .L0 
    1e2a     1f0e       c0     1                 vTaskSwitchContext
    1e32     1f16        0     1                 .L0 
    1e34     1f18        0     1                 .L0 
    1e3e     1f22        0     1                 .L0 
    1e40     1f24        0     1                 .L0 
    1e42     1f26        0     1                 .L0 
    1e44     1f28        0     1                 .L0 
    1e4c     1f30        0     1                 .L0 
    1e4c     1f30        0     1                 .L0 
    1e56     1f3a        0     1                 .L0 
    1e56     1f3a        0     1                 .L0 
    1e8a     1f6e        0     1                 .L0 
    1e8a     1f6e        0     1                 .L0 
    1e8e     1f72        0     1                 .L0 
    1e8e     1f72        0     1                 .L0 
    1e8e     1f72        0     1                 .L0 
    1e9a     1f7e        0     1                 .L0 
    1ea2     1f86        0     1                 .L0 
    1ea2     1f86        0     1                 .L0 
    1ea2     1f86        0     1                 .L0 
    1eb2     1f96        0     1                 .L0 
    1eb2     1f96        0     1                 .L0 
    1eb6     1f9a        0     1                 .L0 
    1ec2     1fa6        0     1                 .L0 
    1ec6     1faa        0     1                 .L0 
    1eca     1fae        0     1                 .L0 
    1ed0     1fb4        0     1                 .L0 
    1ed4     1fb8        0     1                 .L0 
    1ed4     1fb8        0     1                 .L0 
    1ed6     1fba        0     1                 .L0 
    1ee0     1fc4        0     1                 .L0 
    1ee0     1fc4        0     1                 .L0 
    1ee8     1fcc        0     1                 .L0 
    1eea     1fce        0     1                 .L0 
    1eea     1fce        0     1                 .L0 
    1eea     1fce       a8     2         ./src/tasks.o:(.text.vTaskPlaceOnEventList)
    1eea     1fce        0     1                 .L0 
    1eea     1fce        0     1                 .L0 
    1eea     1fce        0     1                 $x
    1eea     1fce        0     1                 .L0 
    1eea     1fce       a8     1                 vTaskPlaceOnEventList
    1ef8     1fdc        0     1                 .L0 
    1f02     1fe6        0     1                 .L0 
    1f02     1fe6        0     1                 .L0 
    1f06     1fea        0     1                 .L0 
    1f0a     1fee        0     1                 .L0 
    1f0a     1fee        0     1                 .L0 
    1f12     1ff6        0     1                 .L0 
    1f12     1ff6        0     1                 .L0 
    1f1a     1ffe        0     1                 .L0 
    1f1a     1ffe        0     1                 .L0 
    1f22     2006        0     1                 .L0 
    1f22     2006        0     1                 .L0 
    1f26     200a        0     1                 .L0 
    1f28     200c        0     1                 .L0 
    1f2c     2010        0     1                 .L0 
    1f2c     2010        0     1                 .L0 
    1f2e     2012        0     1                 .L0 
    1f44     2028        0     1                 .L0 
    1f44     2028        0     1                 .L0 
    1f48     202c        0     1                 .L0 
    1f4a     202e        0     1                 .L0 
    1f4a     202e        0     1                 .L0 
    1f4e     2032        0     1                 .L0 
    1f54     2038        0     1                 .L0 
    1f58     203c        0     1                 .L0 
    1f5e     2042        0     1                 .L0 
    1f5e     2042        0     1                 .L0 
    1f62     2046        0     1                 .L0 
    1f64     2048        0     1                 .L0 
    1f66     204a        0     1                 .L0 
    1f66     204a        0     1                 .L0 
    1f68     204c        0     1                 .L0 
    1f6c     2050        0     1                 .L0 
    1f6c     2050        0     1                 .L0 
    1f6c     2050        0     1                 .L0 
    1f72     2056        0     1                 .L0 
    1f72     2056        0     1                 .L0 
    1f7a     205e        0     1                 .L0 
    1f7e     2062        0     1                 .L0 
    1f82     2066        0     1                 .L0 
    1f82     2066        0     1                 .L0 
    1f82     2066        0     1                 .L0 
    1f8e     2072        0     1                 .L0 
    1f92     2076        0     1                 .L0 
    1f92     2076        0     1                 .L0 
    1f92     2076       d2     2         ./src/tasks.o:(.text.vTaskPlaceOnEventListRestricted)
    1f92     2076        0     1                 .L0 
    1f92     2076        0     1                 .L0 
    1f92     2076        0     1                 $x
    1f92     2076        0     1                 .L0 
    1f92     2076       d2     1                 vTaskPlaceOnEventListRestricted
    1fa0     2084        0     1                 .L0 
    1fa0     2084        0     1                 .L0 
    1fca     20ae        0     1                 .L0 
    1fd2     20b6        0     1                 .L0 
    1fd2     20b6        0     1                 .L0 
    1fd6     20ba        0     1                 .L0 
    1fda     20be        0     1                 .L0 
    1fda     20be        0     1                 .L0 
    1fe2     20c6        0     1                 .L0 
    1fe2     20c6        0     1                 .L0 
    1fea     20ce        0     1                 .L0 
    1fea     20ce        0     1                 .L0 
    1fee     20d2        0     1                 .L0 
    1fee     20d2        0     1                 .L0 
    1ff2     20d6        0     1                 .L0 
    1ff2     20d6        0     1                 .L0 
    1ff8     20dc        0     1                 .L0 
    1ff8     20dc        0     1                 .L0 
    1ffa     20de        0     1                 .L0 
    1ffe     20e2        0     1                 .L0 
    1ffe     20e2        0     1                 .L0 
    2000     20e4        0     1                 .L0 
    2016     20fa        0     1                 .L0 
    2016     20fa        0     1                 .L0 
    201a     20fe        0     1                 .L0 
    201c     2100        0     1                 .L0 
    201c     2100        0     1                 .L0 
    2020     2104        0     1                 .L0 
    2026     210a        0     1                 .L0 
    202a     210e        0     1                 .L0 
    2032     2116        0     1                 .L0 
    2032     2116        0     1                 .L0 
    2034     2118        0     1                 .L0 
    2036     211a        0     1                 .L0 
    2038     211c        0     1                 .L0 
    2038     211c        0     1                 .L0 
    203a     211e        0     1                 .L0 
    203e     2122        0     1                 .L0 
    203e     2122        0     1                 .L0 
    203e     2122        0     1                 .L0 
    2044     2128        0     1                 .L0 
    2044     2128        0     1                 .L0 
    204c     2130        0     1                 .L0 
    2050     2134        0     1                 .L0 
    2054     2138        0     1                 .L0 
    2054     2138        0     1                 .L0 
    2054     2138        0     1                 .L0 
    2060     2144        0     1                 .L0 
    2064     2148        0     1                 .L0 
    2064     2148        0     1                 .L0 
    2064     2148       d6     2         ./src/tasks.o:(.text.xTaskRemoveFromEventList)
    2064     2148        0     1                 .L0 
    2064     2148        0     1                 .L0 
    2064     2148        0     1                 $x
    2064     2148        0     1                 .L0 
    2064     2148       d6     1                 xTaskRemoveFromEventList
    2068     214c        0     1                 .L0 
    2068     214c        0     1                 .L0 
    2076     215a        0     1                 .L0 
    2078     215c        0     1                 .L0 
    2080     2164        0     1                 .L0 
    2084     2168        0     1                 .L0 
    2084     2168        0     1                 .L0 
    208e     2172        0     1                 .L0 
    208e     2172        0     1                 .L0 
    2092     2176        0     1                 .L0 
    2096     217a        0     1                 .L0 
    2098     217c        0     1                 .L0 
    2098     217c        0     1                 .L0 
    20a2     2186        0     1                 .L0 
    20b2     2196        0     1                 .L0 
    20b2     2196        0     1                 .L0 
    20b2     2196        0     1                 .L0 
    20b8     219c        0     1                 .L0 
    20c0     21a4        0     1                 .L0 
    20c2     21a6        0     1                 .L0 
    20ca     21ae        0     1                 .L0 
    20ce     21b2        0     1                 .L0 
    20ce     21b2        0     1                 .L0 
    20d8     21bc        0     1                 .L0 
    20d8     21bc        0     1                 .L0 
    20da     21be        0     1                 .L0 
    20ea     21ce        0     1                 .L0 
    20ea     21ce        0     1                 .L0 
    20fc     21e0        0     1                 .L0 
    2112     21f6        0     1                 .L0 
    2114     21f8        0     1                 .L0 
    2114     21f8        0     1                 .L0 
    2114     21f8        0     1                 .L0 
    211a     21fe        0     1                 .L0 
    211c     2200        0     1                 .L0 
    211c     2200        0     1                 .L0 
    2124     2208        0     1                 .L0 
    2126     220a        0     1                 .L0 
    212a     220e        0     1                 .L0 
    212a     220e        0     1                 .L0 
    2134     2218        0     1                 .L0 
    2134     2218        0     1                 .L0 
    2136     221a        0     1                 .L0 
    2136     221a        0     1                 .L0 
    2136     221a        0     1                 .L0 
    2138     221c        0     1                 .L0 
    2138     221c        0     1                 .L0 
    213a     221e        0     1                 .L0 
    213a     221e        0     1                 .L0 
    213a     221e       16     2         ./src/tasks.o:(.text.vTaskInternalSetTimeOutState)
    213a     221e        0     1                 .L0 
    213a     221e        0     1                 .L0 
    213a     221e        0     1                 $x
    213a     221e        0     1                 .L0 
    213a     221e       16     1                 vTaskInternalSetTimeOutState
    2142     2226        0     1                 .L0 
    2144     2228        0     1                 .L0 
    214c     2230        0     1                 .L0 
    214e     2232        0     1                 .L0 
    2150     2234        0     1                 .L0 
    2150     2234        0     1                 .L0 
    2150     2234       70     2         ./src/tasks.o:(.text.xTaskCheckForTimeOut)
    2150     2234        0     1                 .L0 
    2150     2234        0     1                 .L0 
    2150     2234        0     1                 $x
    2150     2234        0     1                 .L0 
    2150     2234       70     1                 xTaskCheckForTimeOut
    2162     2246        0     1                 .L0 
    2162     2246        0     1                 .L0 
    216a     224e        0     1                 .L0 
    216a     224e        0     1                 .L0 
    216c     2250        0     1                 .L0 
    2174     2258        0     1                 .L0 
    2176     225a        0     1                 .L0 
    217e     2262        0     1                 .L0 
    217e     2262        0     1                 .L0 
    2180     2264        0     1                 .L0 
    2182     2266        0     1                 .L0 
    2182     2266        0     1                 .L0 
    2186     226a        0     1                 .L0 
    218a     226e        0     1                 .L0 
    218a     226e        0     1                 .L0 
    218e     2272        0     1                 .L0 
    2192     2276        0     1                 .L0 
    2194     2278        0     1                 .L0 
    219c     2280        0     1                 .L0 
    219e     2282        0     1                 .L0 
    219e     2282        0     1                 .L0 
    21a0     2284        0     1                 .L0 
    21a0     2284        0     1                 .L0 
    21a2     2286        0     1                 .L0 
    21a2     2286        0     1                 .L0 
    21a2     2286        0     1                 .L0 
    21a8     228c        0     1                 .L0 
    21a8     228c        0     1                 .L0 
    21a8     228c        0     1                 .L0 
    21b8     229c        0     1                 .L0 
    21ba     229e        0     1                 .L0 
    21ba     229e        0     1                 .L0 
    21be     22a2        0     1                 .L0 
    21c0     22a4        0     1                 .L0 
    21c0     22a4        0     1                 .L0 
    21c0     22a4        c     2         ./src/tasks.o:(.text.vTaskMissedYield)
    21c0     22a4        0     1                 .L0 
    21c0     22a4        0     1                 .L0 
    21c0     22a4        0     1                 $x
    21c0     22a4        0     1                 .L0 
    21c0     22a4        c     1                 vTaskMissedYield
    21ca     22ae        0     1                 .L0 
    21cc     22b0        0     1                 .L0 
    21cc     22b0        0     1                 .L0 
    21cc     22b0       14     2         ./src/tasks.o:(.text.prvIdleTask)
    21cc     22b0       14     1                 prvIdleTask
    21cc     22b0        0     1                 .L0 
    21cc     22b0        0     1                 .L0 
    21cc     22b0        0     1                 $x
    21cc     22b0        0     1                 .L0 
    21d2     22b6        0     1                 .L0 
    21d2     22b6        0     1                 .L0 
    21d6     22ba        0     1                 .L0 
    21da     22be        0     1                 .L0 
    21de     22c2        0     1                 .L0 
    21e0     22c4        0     1                 .L0 
    21e0     22c4        0     1                 .L0 
    21e0     22c4       ba     2         ./src/timers.o:(.text.xTimerCreateTimerTask)
    21e0     22c4        0     1                 .L0 
    21e0     22c4        0     1                 .L0 
    21e0     22c4        0     1                 $x
    21e0     22c4        0     1                 .L0 
    21e0     22c4       ba     1                 xTimerCreateTimerTask
    21ec     22d0        0     1                 .L0 
    21ec     22d0        0     1                 .L0 
    21f8     22dc        0     1                 .L0 
    2200     22e4        0     1                 .L0 
    2206     22ea        0     1                 .L0 
    2208     22ec        0     1                 .L0 
    2216     22fa        0     1                 .L0 
    2216     22fa        0     1                 .L0 
    2224     2308        0     1                 .L0 
    2224     2308        0     1                 .L0 
    222c     2310        0     1                 .L0 
    2234     2318        0     1                 .L0 
    223e     2322        0     1                 .L0 
    223e     2322        0     1                 .L0 
    2242     2326        0     1                 .L0 
    2242     2326        0     1                 .L0 
    224e     2332        0     1                 .L0 
    2252     2336        0     1                 .L0 
    2252     2336        0     1                 .L0 
    2252     2336        0     1                 .L0 
    225a     233e        0     1                 .L0 
    225c     2340        0     1                 .L0 
    2286     236a        0     1                 .L0 
    2288     236c        0     1                 .L0 
    228c     2370        0     1                 .L0 
    228c     2370        0     1                 .L0 
    2296     237a        0     1                 .L0 
    229a     237e        0     1                 .L0 
    229a     237e        0     1                 .L0 
    229a     237e      1f8     2         ./src/timers.o:(.text.prvTimerTask)
    229a     237e      1f8     1                 prvTimerTask
    229a     237e        0     1                 .L0 
    229a     237e        0     1                 .L0 
    229a     237e        0     1                 $x
    229a     237e        0     1                 .L0 
    22cc     23b0        0     1                 .L0 
    22cc     23b0        0     1                 .L0 
    22cc     23b0        0     1                 .L0 
    22d2     23b6        0     1                 .L0 
    22d4     23b8        0     1                 .L0 
    22da     23be        0     1                 .L0 
    22da     23be        0     1                 .L0 
    22dc     23c0        0     1                 .L0 
    22dc     23c0        0     1                 .L0 
    22de     23c2        0     1                 .L0 
    22de     23c2        0     1                 .L0 
    22de     23c2        0     1                 .L0 
    22e2     23c6        0     1                 .L0 
    22e2     23c6        0     1                 .L0 
    22e4     23c8        0     1                 .L0 
    22e4     23c8        0     1                 .L0 
    22e8     23cc        0     1                 .L0 
    22ea     23ce        0     1                 .L0 
    22ea     23ce        0     1                 .L0 
    22ee     23d2        0     1                 .L0 
    22ee     23d2        0     1                 .L0 
    22ee     23d2        0     1                 .L0 
    22f4     23d8        0     1                 .L0 
    22f6     23da        0     1                 .L0 
    22fa     23de        0     1                 .L0 
    22fa     23de        0     1                 .L0 
    22fe     23e2        0     1                 .L0 
    22fe     23e2        0     1                 .L0 
    2300     23e4        0     1                 .L0 
    2300     23e4        0     1                 .L0 
    2300     23e4        0     1                 .L0 
    2304     23e8        0     1                 .L0 
    2304     23e8        0     1                 .L0 
    2306     23ea        0     1                 .L0 
    230a     23ee        0     1                 .L0 
    230e     23f2        0     1                 .L0 
    230e     23f2        0     1                 .L0 
    2314     23f8        0     1                 .L0 
    2314     23f8        0     1                 .L0 
    2316     23fa        0     1                 .L0 
    2316     23fa        0     1                 .L0 
    2316     23fa        0     1                 .L0 
    231a     23fe        0     1                 .L0 
    231e     2402        0     1                 .L0 
    2322     2406        0     1                 .L0 
    2322     2406        0     1                 .L0 
    2326     240a        0     1                 .L0 
    2326     240a        0     1                 .L0 
    232a     240e        0     1                 .L0 
    232a     240e        0     1                 .L0 
    232c     2410        0     1                 .L0 
    232c     2410        0     1                 .L0 
    232c     2410        0     1                 .L0 
    232e     2412        0     1                 .L0 
    2330     2414        0     1                 .L0 
    2332     2416        0     1                 .L0 
    2332     2416        0     1                 .L0 
    233c     2420        0     1                 .L0 
    233c     2420        0     1                 .L0 
    233c     2420        0     1                 .L0 
    2340     2424        0     1                 .L0 
    2344     2428        0     1                 .L0 
    2348     242c        0     1                 .L0 
    2348     242c        0     1                 .L0 
    234c     2430        0     1                 .L0 
    234c     2430        0     1                 .L0 
    234e     2432        0     1                 .L0 
    2352     2436        0     1                 .L0 
    2352     2436        0     1                 .L0 
    2352     2436        0     1                 .L0 
    2356     243a        0     1                 .L0 
    235c     2440        0     1                 .L0 
    235c     2440        0     1                 .L0 
    235e     2442        0     1                 .L0 
    235e     2442        0     1                 .L0 
    235e     2442        0     1                 .L0 
    2362     2446        0     1                 .L0 
    2362     2446        0     1                 .L0 
    2368     244c        0     1                 .L0 
    2368     244c        0     1                 .L0 
    2368     244c        0     1                 .L0 
    236c     2450        0     1                 .L0 
    236c     2450        0     1                 .L0 
    2374     2458        0     1                 .L0 
    2374     2458        0     1                 .L0 
    2376     245a        0     1                 .L0 
    2378     245c        0     1                 .L0 
    237c     2460        0     1                 .L0 
    237e     2462        0     1                 .L0 
    237e     2462        0     1                 .L0 
    2380     2464        0     1                 .L0 
    2386     246a        0     1                 .L0 
    2388     246c        0     1                 .L0 
    238e     2472        0     1                 .L0 
    238e     2472        0     1                 .L0 
    238e     2472        0     1                 .L0 
    2390     2474        0     1                 .L0 
    2390     2474        0     1                 .L0 
    2394     2478        0     1                 .L0 
    2396     247a        0     1                 .L0 
    2396     247a        0     1                 .L0 
    239a     247e        0     1                 .L0 
    239a     247e        0     1                 .L0 
    239a     247e        0     1                 .L0 
    23a0     2484        0     1                 .L0 
    23a2     2486        0     1                 .L0 
    23a6     248a        0     1                 .L0 
    23a6     248a        0     1                 .L0 
    23aa     248e        0     1                 .L0 
    23aa     248e        0     1                 .L0 
    23ac     2490        0     1                 .L0 
    23ac     2490        0     1                 .L0 
    23ac     2490        0     1                 .L0 
    23b0     2494        0     1                 .L0 
    23b4     2498        0     1                 .L0 
    23b8     249c        0     1                 .L0 
    23b8     249c        0     1                 .L0 
    23b8     249c        0     1                 .L0 
    23ba     249e        0     1                 .L0 
    23bc     24a0        0     1                 .L0 
    23bc     24a0        0     1                 .L0 
    23c0     24a4        0     1                 .L0 
    23c0     24a4        0     1                 .L0 
    23c4     24a8        0     1                 .L0 
    23cc     24b0        0     1                 .L0 
    23cc     24b0        0     1                 .L0 
    23d0     24b4        0     1                 .L0 
    23d2     24b6        0     1                 .L0 
    23d4     24b8        0     1                 .L0 
    23dc     24c0        0     1                 .L0 
    23e0     24c4        0     1                 .L0 
    23e0     24c4        0     1                 .L0 
    23e2     24c6        0     1                 .L0 
    23e4     24c8        0     1                 .L0 
    23e8     24cc        0     1                 .L0 
    23ec     24d0        0     1                 .L0 
    23f2     24d6        0     1                 .L0 
    23f2     24d6        0     1                 .L0 
    23f6     24da        0     1                 .L0 
    23f6     24da        0     1                 .L0 
    23fa     24de        0     1                 .L0 
    23fa     24de        0     1                 .L0 
    23fa     24de        0     1                 .L0 
    23fe     24e2        0     1                 .L0 
    2400     24e4        0     1                 .L0 
    240a     24ee        0     1                 .L0 
    240a     24ee        0     1                 .L0 
    240e     24f2        0     1                 .L0 
    2410     24f4        0     1                 .L0 
    2418     24fc        0     1                 .L0 
    241a     24fe        0     1                 .L0 
    241e     2502        0     1                 .L0 
    241e     2502        0     1                 .L0 
    2420     2504        0     1                 .L0 
    2422     2506        0     1                 .L0 
    2426     250a        0     1                 .L0 
    2428     250c        0     1                 .L0 
    2428     250c        0     1                 .L0 
    2428     250c        0     1                 .L0 
    242e     2512        0     1                 .L0 
    242e     2512        0     1                 .L0 
    242e     2512        0     1                 .L0 
    2432     2516        0     1                 .L0 
    2432     2516        0     1                 .L0 
    243c     2520        0     1                 .L0 
    243c     2520        0     1                 .L0 
    243e     2522        0     1                 .L0 
    2442     2526        0     1                 .L0 
    2442     2526        0     1                 .L0 
    2442     2526        0     1                 .L0 
    2446     252a        0     1                 .L0 
    2446     252a        0     1                 .L0 
    244a     252e        0     1                 .L0 
    244a     252e        0     1                 .L0 
    244a     252e        0     1                 .L0 
    244c     2530        0     1                 .L0 
    2450     2534        0     1                 .L0 
    2450     2534        0     1                 .L0 
    2452     2536        0     1                 .L0 
    2452     2536        0     1                 .L0 
    2452     2536        0     1                 .L0 
    2454     2538        0     1                 .L0 
    2458     253c        0     1                 .L0 
    2458     253c        0     1                 .L0 
    245a     253e        0     1                 .L0 
    245c     2540        0     1                 .L0 
    2460     2544        0     1                 .L0 
    2468     254c        0     1                 .L0 
    2468     254c        0     1                 .L0 
    246c     2550        0     1                 .L0 
    246e     2552        0     1                 .L0 
    246e     2552        0     1                 .L0 
    246e     2552        0     1                 .L0 
    2472     2556        0     1                 .L0 
    2476     255a        0     1                 .L0 
    2478     255c        0     1                 .L0 
    247e     2562        0     1                 .L0 
    247e     2562        0     1                 .L0 
    2480     2564        0     1                 .L0 
    2480     2564        0     1                 .L0 
    2480     2564        0     1                 .L0 
    2484     2568        0     1                 .L0 
    2484     2568        0     1                 .L0 
    248a     256e        0     1                 .L0 
    248a     256e        0     1                 .L0 
    248a     256e        0     1                 .L0 
    248c     2570        0     1                 .L0 
    2490     2574        0     1                 .L0 
    2490     2574        0     1                 .L0 
    2492     2576        0     1                 .L0 
    2492     2576        0     1                 .L0 
    2492     2576        0     1                 .L0 
    2492     2576       9a     2         ./src/timers.o:(.text.prvProcessExpiredTimer)
    2492     2576       9a     1                 prvProcessExpiredTimer
    2492     2576        0     1                 .L0 
    2492     2576        0     1                 .L0 
    2492     2576        0     1                 $x
    2492     2576        0     1                 .L0 
    24a0     2584        0     1                 .L0 
    24ae     2592        0     1                 .L0 
    24ae     2592        0     1                 .L0 
    24b0     2594        0     1                 .L0 
    24b2     2596        0     1                 .L0 
    24b2     2596        0     1                 .L0 
    24b6     259a        0     1                 .L0 
    24bc     25a0        0     1                 .L0 
    24bc     25a0        0     1                 .L0 
    24c0     25a4        0     1                 .L0 
    24c4     25a8        0     1                 .L0 
    24c6     25aa        0     1                 .L0 
    24d0     25b4        0     1                 .L0 
    24d0     25b4        0     1                 .L0 
    24d0     25b4        0     1                 .L0 
    24d4     25b8        0     1                 .L0 
    24d8     25bc        0     1                 .L0 
    24d8     25bc        0     1                 .L0 
    24d8     25bc        0     1                 .L0 
    24dc     25c0        0     1                 .L0 
    24e0     25c4        0     1                 .L0 
    24e0     25c4        0     1                 .L0 
    24e2     25c6        0     1                 .L0 
    24e2     25c6        0     1                 .L0 
    24e2     25c6        0     1                 .L0 
    24e6     25ca        0     1                 .L0 
    24ea     25ce        0     1                 .L0 
    24ea     25ce        0     1                 .L0 
    24ee     25d2        0     1                 .L0 
    24f2     25d6        0     1                 .L0 
    24f6     25da        0     1                 .L0 
    24fe     25e2        0     1                 .L0 
    24fe     25e2        0     1                 .L0 
    2506     25ea        0     1                 .L0 
    2508     25ec        0     1                 .L0 
    2508     25ec        0     1                 .L0 
    2510     25f4        0     1                 .L0 
    2510     25f4        0     1                 .L0 
    2516     25fa        0     1                 .L0 
    2516     25fa        0     1                 .L0 
    2516     25fa        0     1                 .L0 
    251a     25fe        0     1                 .L0 
    2526     260a        0     1                 .L0 
    2526     260a        0     1                 .L0 
    2528     260c        0     1                 .L0 
    2528     260c        0     1                 .L0 
    252a     260e        0     1                 .L0 
    252c     2610        0     1                 .L0 
    252c     2610        0     1                 .L0 
    252c     2610       1e     2         /home/user0/e2_studio/workspace/freertos_port/HardwareDebug/libfreertos_port.a(libc_a-exit.o):(.text.exit)
    252c     2610        0     1                 $x
    252c     2610       1e     1                 exit
    2544     2628        0     1                 .L0 
    254a     262e       cc     2         /home/user0/e2_studio/workspace/freertos_port/HardwareDebug/libfreertos_port.a(libc_a-__call_atexit.o):(.text.__call_exitprocs)
    254a     262e        0     1                 $x
    254a     262e       cc     1                 __call_exitprocs
    2570     2654        0     1                 .L0 
    257e     2662        0     1                 .L0 
    2580     2664        0     1                 .L0 
    2598     267c        0     1                 .L0 
    259e     2682        0     1                 .L0 
    25b4     2698        0     1                 .L0 
    25c8     26ac        0     1                 .L0 
    25e8     26cc        0     1                 .L0 
    25ee     26d2        0     1                 .L0 
    25f2     26d6        0     1                 .L0 
    25f8     26dc        0     1                 .L0 
    2600     26e4        0     1                 .L0 
    2616     26fa       5e     2         /home/user0/e2_studio/workspace/freertos_port/HardwareDebug/libfreertos_port.a(libc_a-init.o):(.text.__libc_init_array)
    2616     26fa        0     1                 $x
    2616     26fa       5e     1                 __libc_init_array
    263a     271e        0     1                 .L0 
    2644     2728        0     1                 .L0 
    2660     2744        0     1                 .L0 
    266a     274e        0     1                 .L0 
    2674     2758       76     2         /home/user0/e2_studio/workspace/freertos_port/HardwareDebug/libfreertos_port.a(libc_a-memcpy.o):(.text.memcpy)
    2674     2758        0     1                 $x
    2674     2758       76     1                 memcpy
    2682     2766        0     1                 .L0 
    2684     2768        0     1                 .L0 
    2686     276a        0     1                 .L0 
    268a     276e        0     1                 .L0 
    269e     2782        0     1                 .L0 
    26a0     2784        0     1                 .L0 
    26a4     2788        0     1                 .L0 
    26ca     27ae        0     1                 .L0 
    26e6     27ca        0     1                 .L0 
    26ea     27ce       98     2         /home/user0/e2_studio/workspace/freertos_port/HardwareDebug/libfreertos_port.a(libc_a-memset.o):(.text.memset)
    26ea     27ce        0     1                 $x
    26ea     27ce       98     1                 memset
    26f6     27da        0     1                 .L0 
    2716     27fa        0     1                 .L0 
    271e     2802        0     1                 .L0 
    2736     281a        0     1                 .L0 
    2750     2834        0     1                 .L0 
    2752     2836        0     1                 .L0 
    2760     2844        0     1                 .L0 
    2762     2846        0     1                 .L0 
    2764     2848        0     1                 .L0 
    2772     2856        0     1                 .L0 
    2774     2858        0     1                 .L0 
    277c     2860        0     1                 .L0 
    2782     2866      112     2         /home/user0/custom_installed/e2_studio/toolchains/llvm-19.1.7.202501-riscv-elf/llvm-for-renesas-riscv/bin/../lib/clang-runtimes/riscv32-unknown-elf/rv32imaczba_zbb_zbs/ilp32/lib/libclang_rt.builtins.a(udivdi3.c.o):(.text.__udivdi3)
    2782     2866        0     1                 $x
    2782     2866      112     1                 __udivdi3
    278e     2872        0     1                 .L0 
    2794     2878        0     1                 .L0 
    279a     287e        0     1                 .L0 
    27a2     2886        0     1                 .L0 
    27b4     2898        0     1                 .L0 
    27ca     28ae        0     1                 .L0 
    27e0     28c4        0     1                 .L0 
    27fe     28e2        0     1                 .L0 
    2816     28fa        0     1                 .L0 
    282c     2910        0     1                 .L0 
    2892     2976        0     1                 .L0 
    2978     2978       5c     4 .rodata
    2978     2978        0     1         . = ALIGN ( 4 )
    2978     2978        0     1         __rodata = .
    2978     2978       14     4         ./src/smc_gen/r_bsp/mcu/r9a02g021/mcu_clocks.o:(.rodata..Lswitch.table.get_iclk_freq_hz)
    2978     2978       14     1                 .Lswitch.table.get_iclk_freq_hz
    2978     2978        0     1                 $d
    298c     298c        6     2         ./src/smc_gen/r_bsp/mcu/all/r_bsp_common.o:(.rodata.s_prcr_masks)
    298c     298c        6     1                 s_prcr_masks
    298c     298c        0     1                 $d
    2992     2992        f     1         <internal>:(.rodata.str1.1)
    29a4     29a4        4     4         ./src/port.o:(.rodata.xISRStackTop)
    29a4     29a4        0     1                 $d
    29a4     29a4        4     1                 xISRStackTop
    29a8     29a8        4     4         ./src/port.o:(.rodata.uxTimerIncrementsForOneTick)
    29a8     29a8        0     1                 $d
    29a8     29a8        4     1                 uxTimerIncrementsForOneTick
    29ac     29ac        4     4         ./src/tasks.o:(.rodata.uxTopUsedPriority)
    29ac     29ac        4     1                 uxTopUsedPriority
    29ac     29ac        0     1                 $d
    29b0     29b0       24     4         ./src/timers.o:(.rodata.prvTimerTask)
    29b0     29b0        0     1                 .LJTI1_0
    29b0     29b0        0     1                 $d
    29d4     29d4        0     1         . = ALIGN ( 4 )
    29d4     29d4        0     1         . = ALIGN ( 4 )
    29d4     29d4        0     1         PROVIDE ( __preinit_array_start = . )
    29d4     29d4        0     1         PROVIDE ( __preinit_array_end = . )
    29d4     29d4        0     1         PROVIDE ( __init_array_start = . )
    29d4     29d4        0     1         PROVIDE ( __init_array_end = . )
    29d4     29d4        0     1         __erodata = .
 1010008  1010008        4     4 .option_secs
 1010008  1010008        4     4         ./src/smc_gen/r_bsp/mcu/r9a02g021/mcu_option_settings.o:(.option_secs)
 1010008  1010008        0     1                 $d
 1010008  1010008        4     1                 __SECSreg
 1010010  1010010        4     4 .option_aws
 1010010  1010010        4     4         ./src/smc_gen/r_bsp/mcu/r9a02g021/mcu_option_settings.o:(.option_aws)
 1010010  1010010        0     1                 $d
 1010010  1010010        4     1                 __AWSreg
 1010018  1010018        4     4 .option_uids0
 1010018  1010018        4     4         ./src/smc_gen/r_bsp/mcu/r9a02g021/mcu_option_settings.o:(.option_uids0)
 1010018  1010018        0     1                 $d
 1010018  1010018        4     1                 __UIDS0reg
 1010020  1010020        4     4 .option_uids1
 1010020  1010020        4     4         ./src/smc_gen/r_bsp/mcu/r9a02g021/mcu_option_settings.o:(.option_uids1)
 1010020  1010020        0     1                 $d
 1010020  1010020        4     1                 __UIDS1reg
 1010028  1010028        4     4 .option_uids2
 1010028  1010028        4     4         ./src/smc_gen/r_bsp/mcu/r9a02g021/mcu_option_settings.o:(.option_uids2)
 1010028  1010028        0     1                 $d
 1010028  1010028        4     1                 __UIDS2reg
 1010030  1010030        4     4 .option_uids3
 1010030  1010030        4     4         ./src/smc_gen/r_bsp/mcu/r9a02g021/mcu_option_settings.o:(.option_uids3)
 1010030  1010030        0     1                 $d
 1010030  1010030        4     1                 __UIDS3reg
20004000      810        c     4 .data
20004000      810        0     1         . = ALIGN ( 4 )
20004000      810        0     1         PROVIDE ( __datastart = . )
20004000      810        0     1         __data = .
20004000      810        c     4         ./src/port.o:(.sdata)
20004000      810        0     1                 $d
20004000      810        4     1                 pullNextTime
20004004      814        4     1                 xCriticalNesting
20004008      818        4     1                 pxCriticalNesting
2000400c      81c        0     1         . = ALIGN ( 4 )
2000400c      81c        0     1         __edata = .
2000400c      81c        0     1 PROVIDE ( __romdatastart = LOADADDR ( .data ) )
2000400c      81c        0     1 PROVIDE ( __romdatacopysize = SIZEOF ( .data ) )
20000000 20000000        0     1 .data_eccram
20000000 20000000        0     1         . = ALIGN ( 4 )
20000000 20000000        0     1         PROVIDE ( __dataeccramstart = . )
20000000 20000000        0     1         __data_eccram = .
20000000 20000000        0     1         . = ALIGN ( 4 )
20000000 20000000        0     1         __edata_eccram = .
20000000 20000000        0     1 PROVIDE ( __romdataeccramstart = LOADADDR ( .data_eccram ) )
20000000 20000000        0     1 PROVIDE ( __romdataeccramcopysize = SIZEOF ( .data_eccram ) )
20004010 20004010     1380     8 .bss
20004010 20004010        0     1         . = ALIGN ( 4 )
20004010 20004010        0     1         __bss = .
20004010 20004010        4     4         ./src/smc_gen/Config_ICU/Config_ICU_user.o:(.sbss)
20004010 20004010        0     1                 $d
20004010 20004010        4     1                 blinkDelay
20004014 20004014       1c     4         ./src/heap_4.o:(.sbss)
20004014 20004014        4     1                 pxEnd
20004014 20004014        0     1                 $d
20004018 20004018        4     1                 xFreeBytesRemaining
2000401c 2000401c        8     1                 xStart
20004024 20004024        4     1                 xMinimumEverFreeBytesRemaining
20004028 20004028        4     1                 xNumberOfSuccessfulAllocations
2000402c 2000402c        4     1                 xNumberOfSuccessfulFrees
20004030 20004030        8     4         ./src/main.o:(.sbss)
20004030 20004030        4     1                 xIntegerQueue
20004030 20004030        0     1                 $d
20004034 20004034        4     1                 xBlinkyTask
20004038 20004038       10     8         ./src/port.o:(.sbss)
20004038 20004038        0     1                 $d
20004038 20004038        8     1                 ullNextTime
20004040 20004040        4     1                 pullMachineTimerCompareRegister
20004044 20004044        4     1                 xTaskReturnAddress
20004048 20004048       38     4         ./src/tasks.o:(.sbss)
20004048 20004048        0     1                 $d
20004048 20004048        4     1                 pxCurrentTCB
2000404c 2000404c        4     1                 xNextTaskUnblockTime
20004050 20004050        4     1                 xSchedulerRunning
20004054 20004054        4     1                 xTickCount
20004058 20004058        4     1                 xIdleTaskHandles
2000405c 2000405c        4     1                 uxSchedulerSuspended
20004060 20004060        4     1                 uxCurrentNumberOfTasks
20004064 20004064        4     1                 uxTopReadyPriority
20004068 20004068        4     1                 xYieldPendings
2000406c 2000406c        4     1                 xPendedTicks
20004070 20004070        4     1                 pxDelayedTaskList
20004074 20004074        4     1                 pxOverflowDelayedTaskList
20004078 20004078        4     1                 xNumOfOverflows
2000407c 2000407c        4     1                 uxTaskNumber
20004080 20004080       14     4         ./src/timers.o:(.sbss)
20004080 20004080        4     1                 xTimerQueue
20004080 20004080        0     1                 $d
20004084 20004084        4     1                 xTimerTaskHandle
20004088 20004088        4     1                 pxCurrentTimerList
2000408c 2000408c        4     1                 pxOverflowTimerList
20004090 20004090        4     1                 prvSampleTimeNow.xLastTime
20004094 20004094        4     4         /home/user0/e2_studio/workspace/freertos_port/HardwareDebug/libfreertos_port.a(libc_a-__call_atexit.o):(.sbss)
20004094 20004094        0     1                 $d
20004094 20004094        4     1                 __atexit
20004098 20004098        4     4         /home/user0/e2_studio/workspace/freertos_port/HardwareDebug/libfreertos_port.a(libc_a-findfp.o):(.sbss)
20004098 20004098        0     1                 $d
20004098 20004098        4     1                 __stdio_exit_handler
2000409c 2000409c        e     2         ./src/smc_gen/r_bsp/mcu/all/r_bsp_common.o:(.bss.s_protect_counters)
2000409c 2000409c        e     1                 s_protect_counters
2000409c 2000409c        0     1                 $d
200040aa 200040aa     1000     1         ./src/heap_4.o:(.bss.ucHeap)
200040aa 200040aa     1000     1                 ucHeap
200040aa 200040aa        0     1                 $d
200050ac 200050ac       14     4         ./src/tasks.o:(.bss.xPendingReadyList)
200050ac 200050ac       14     1                 xPendingReadyList
200050ac 200050ac        0     1                 $d
200050c0 200050c0      280     4         ./src/tasks.o:(.bss.pxReadyTasksLists)
200050c0 200050c0      280     1                 pxReadyTasksLists
200050c0 200050c0        0     1                 $d
20005340 20005340       14     4         ./src/tasks.o:(.bss.xDelayedTaskList1)
20005340 20005340       14     1                 xDelayedTaskList1
20005340 20005340        0     1                 $d
20005354 20005354       14     4         ./src/tasks.o:(.bss.xDelayedTaskList2)
20005354 20005354       14     1                 xDelayedTaskList2
20005354 20005354        0     1                 $d
20005368 20005368       14     4         ./src/timers.o:(.bss.xActiveTimerList1)
20005368 20005368       14     1                 xActiveTimerList1
20005368 20005368        0     1                 $d
2000537c 2000537c       14     4         ./src/timers.o:(.bss.xActiveTimerList2)
2000537c 2000537c       14     1                 xActiveTimerList2
2000537c 2000537c        0     1                 $d
20005390 20005390        0     1         . = ALIGN ( 4 )
20005390 20005390        0     1         . = ALIGN ( 4 )
20005390 20005390        0     1         . = ALIGN ( 4 )
20005390 20005390        0     1         __ebss = .
20005390 20005390        0     1         end = .
20000000 20000000        0     1 .bss_eccram
20000000 20000000        0     1         . = ALIGN ( 4 )
20000000 20000000        0     1         __bss_eccram = .
20000000 20000000        0     1         . = ALIGN ( 4 )
20000000 20000000        0     1         __ebss_eccram = .
20000000 20000000        0     1 PROVIDE ( __stack_size = 0x200 )
20006ffc 20006ffc        0     1 .stack
20006ffc 20006ffc        0     1         PROVIDE ( __stack = . )
20006ffc 20006ffc        0     1         PROVIDE ( __freertos_irq_stack_top = . )
20006ffc 20006ffc        0     1         
       0        0     1e57     1 .debug_abbrev
       0        0      107     1         ./src/smc_gen/r_pincfg/Pin.o:(.debug_abbrev)
       0        0        0     1                 $d
     107      107      266     1         ./src/smc_gen/r_bsp/mcu/r9a02g021/mcu_clocks.o:(.debug_abbrev)
     107      107        0     1                 $d
     36d      36d       5f     1         ./src/smc_gen/r_bsp/mcu/r9a02g021/mcu_option_settings.o:(.debug_abbrev)
     36d      36d        0     1                 $d
     3cc      3cc       21     1         ./src/smc_gen/r_bsp/mcu/all/exit.o:(.debug_abbrev)
     3cc      3cc        0     1                 .L0 
     3cc      3cc        0     1                 $d
     3ed      3ed       21     1         ./src/smc_gen/r_bsp/mcu/all/machine_timer_aux.o:(.debug_abbrev)
     3ed      3ed        0     1                 .L0 
     3ed      3ed        0     1                 $d
     40e      40e      2a0     1         ./src/smc_gen/r_bsp/mcu/all/r_bsp_common.o:(.debug_abbrev)
     40e      40e        0     1                 $d
     6ae      6ae       21     1         ./src/smc_gen/r_bsp/mcu/all/r_bsp_common_llvm.o:(.debug_abbrev)
     6ae      6ae        0     1                 .L0 
     6ae      6ae        0     1                 $d
     6cf      6cf       2f     1         ./src/smc_gen/r_bsp/mcu/all/r_bsp_machine_timer.o:(.debug_abbrev)
     6cf      6cf        0     1                 $d
     6fe      6fe       21     1         ./src/smc_gen/r_bsp/mcu/all/start.o:(.debug_abbrev)
     6fe      6fe        0     1                 .L0 
     6fe      6fe        0     1                 $d
     71f      71f       77     1         ./src/smc_gen/r_bsp/board/generic_r9a02g021/hdwinit.o:(.debug_abbrev)
     71f      71f        0     1                 $d
     796      796      119     1         ./src/smc_gen/r_bsp/board/generic_r9a02g021/r_bsp_init.o:(.debug_abbrev)
     796      796        0     1                 $d
     8af      8af       48     1         ./src/smc_gen/general/r_cg_inthandler.o:(.debug_abbrev)
     8af      8af        0     1                 $d
     8f7      8f7       9c     1         ./src/smc_gen/general/r_cg_systeminit.o:(.debug_abbrev)
     8f7      8f7        0     1                 $d
     993      993      125     1         ./src/smc_gen/general/r_cg_vect_table.o:(.debug_abbrev)
     993      993        0     1                 $d
     ab8      ab8       4d     1         ./src/smc_gen/general/r_smc_cgc.o:(.debug_abbrev)
     ab8      ab8        0     1                 $d
     b05      b05       2f     1         ./src/smc_gen/general/r_smc_cgc_user.o:(.debug_abbrev)
     b05      b05        0     1                 $d
     b34      b34       2f     1         ./src/smc_gen/general/r_smc_interrupt.o:(.debug_abbrev)
     b34      b34        0     1                 $d
     b63      b63      1bf     1         ./src/smc_gen/Config_PORT/Config_PORT.o:(.debug_abbrev)
     b63      b63        0     1                 $d
     d22      d22       2f     1         ./src/smc_gen/Config_PORT/Config_PORT_user.o:(.debug_abbrev)
     d22      d22        0     1                 $d
     d51      d51      156     1         ./src/smc_gen/Config_ICU/Config_ICU.o:(.debug_abbrev)
     d51      d51        0     1                 $d
     ea7      ea7       fa     1         ./src/smc_gen/Config_ICU/Config_ICU_user.o:(.debug_abbrev)
     ea7      ea7        0     1                 $d
     fa1      fa1      1fb     1         ./src/heap_4.o:(.debug_abbrev)
     fa1      fa1        0     1                 $d
    119c     119c       c1     1         ./src/list.o:(.debug_abbrev)
    119c     119c        0     1                 $d
    125d     125d      222     1         ./src/main.o:(.debug_abbrev)
    125d     125d        0     1                 $d
    147f     147f       ee     1         ./src/port.o:(.debug_abbrev)
    147f     147f        0     1                 $d
    156d     156d       1f     1         ./src/portASM.o:(.debug_abbrev)
    156d     156d        0     1                 .L0 
    156d     156d        0     1                 $d
    158c     158c      259     1         ./src/queue.o:(.debug_abbrev)
    158c     158c        0     1                 $d
    17e5     17e5      347     1         ./src/tasks.o:(.debug_abbrev)
    17e5     17e5        0     1                 $d
    1b2c     1b2c      32b     1         ./src/timers.o:(.debug_abbrev)
    1b2c     1b2c        0     1                 $d
       0        0    2476a     1 .debug_info
       0        0     58d1     1         ./src/smc_gen/r_pincfg/Pin.o:(.debug_info)
       0        0        0     1                 $d
    58d1     58d1     1861     1         ./src/smc_gen/r_bsp/mcu/r9a02g021/mcu_clocks.o:(.debug_info)
    58d1     58d1        0     1                 $d
    7132     7132       c2     1         ./src/smc_gen/r_bsp/mcu/r9a02g021/mcu_option_settings.o:(.debug_info)
    7132     7132        0     1                 $d
    71f4     71f4       d5     1         ./src/smc_gen/r_bsp/mcu/all/exit.o:(.debug_info)
    71f4     71f4        0     1                 .L0 
    71f4     71f4        0     1                 $d
    72c9     72c9      11e     1         ./src/smc_gen/r_bsp/mcu/all/machine_timer_aux.o:(.debug_info)
    72c9     72c9        0     1                 .L0 
    72c9     72c9        0     1                 $d
    73e7     73e7     6a69     1         ./src/smc_gen/r_bsp/mcu/all/r_bsp_common.o:(.debug_info)
    73e7     73e7        0     1                 $d
    de50     de50      10c     1         ./src/smc_gen/r_bsp/mcu/all/r_bsp_common_llvm.o:(.debug_info)
    de50     de50        0     1                 .L0 
    de50     de50        0     1                 $d
    df5c     df5c       2f     1         ./src/smc_gen/r_bsp/mcu/all/r_bsp_machine_timer.o:(.debug_info)
    df5c     df5c        0     1                 $d
    df8b     df8b       df     1         ./src/smc_gen/r_bsp/mcu/all/start.o:(.debug_info)
    df8b     df8b        0     1                 .L0 
    df8b     df8b        0     1                 $d
    e06a     e06a       81     1         ./src/smc_gen/r_bsp/board/generic_r9a02g021/hdwinit.o:(.debug_info)
    e06a     e06a        0     1                 $d
    e0eb     e0eb      9ca     1         ./src/smc_gen/r_bsp/board/generic_r9a02g021/r_bsp_init.o:(.debug_info)
    e0eb     e0eb        0     1                 $d
    eab5     eab5      1b3     1         ./src/smc_gen/general/r_cg_inthandler.o:(.debug_info)
    eab5     eab5        0     1                 $d
    ec68     ec68       9b     1         ./src/smc_gen/general/r_cg_systeminit.o:(.debug_info)
    ec68     ec68        0     1                 $d
    ed03     ed03      17d     1         ./src/smc_gen/general/r_cg_vect_table.o:(.debug_info)
    ed03     ed03        0     1                 $d
    ee80     ee80       3a     1         ./src/smc_gen/general/r_smc_cgc.o:(.debug_info)
    ee80     ee80        0     1                 $d
    eeba     eeba       2f     1         ./src/smc_gen/general/r_smc_cgc_user.o:(.debug_info)
    eeba     eeba        0     1                 $d
    eee9     eee9       2f     1         ./src/smc_gen/general/r_smc_interrupt.o:(.debug_info)
    eee9     eee9        0     1                 $d
    ef18     ef18     7366     1         ./src/smc_gen/Config_PORT/Config_PORT.o:(.debug_info)
    ef18     ef18        0     1                 $d
   1627e    1627e       2f     1         ./src/smc_gen/Config_PORT/Config_PORT_user.o:(.debug_info)
   1627e    1627e        0     1                 $d
   162ad    162ad     96c3     1         ./src/smc_gen/Config_ICU/Config_ICU.o:(.debug_info)
   162ad    162ad        0     1                 $d
   1f970    1f970      875     1         ./src/smc_gen/Config_ICU/Config_ICU_user.o:(.debug_info)
   1f970    1f970        0     1                 $d
   201e5    201e5      37c     1         ./src/heap_4.o:(.debug_info)
   201e5    201e5        0     1                 $d
   20561    20561      1a8     1         ./src/list.o:(.debug_info)
   20561    20561        0     1                 $d
   20709    20709     1175     1         ./src/main.o:(.debug_info)
   20709    20709        0     1                 $d
   2187e    2187e      1a3     1         ./src/port.o:(.debug_info)
   2187e    2187e        0     1                 $d
   21a21    21a21      3a4     1         ./src/portASM.o:(.debug_info)
   21a21    21a21        0     1                 .L0 
   21a21    21a21        0     1                 $d
   21dc5    21dc5      cb3     1         ./src/queue.o:(.debug_info)
   21dc5    21dc5        0     1                 $d
   22a78    22a78     11bd     1         ./src/tasks.o:(.debug_info)
   22a78    22a78        0     1                 $d
   23c35    23c35      b35     1         ./src/timers.o:(.debug_info)
   23c35    23c35        0     1                 $d
       0        0     43c8     1 .debug_str_offsets
       0        0      6e4     1         ./src/smc_gen/r_pincfg/Pin.o:(.debug_str_offsets)
       0        0        0     1                 $d
       8        8        0     1                 .L0 
     6e4      6e4      568     1         ./src/smc_gen/r_bsp/mcu/r9a02g021/mcu_clocks.o:(.debug_str_offsets)
     6e4      6e4        0     1                 $d
     6ec      6ec        0     1                 .L0 
     c4c      c4c       4c     1         ./src/smc_gen/r_bsp/mcu/r9a02g021/mcu_option_settings.o:(.debug_str_offsets)
     c4c      c4c        0     1                 $d
     c54      c54        0     1                 .L0 
     c98      c98      a84     1         ./src/smc_gen/r_bsp/mcu/all/r_bsp_common.o:(.debug_str_offsets)
     c98      c98        0     1                 $d
     ca0      ca0        0     1                 .L0 
    171c     171c       18     1         ./src/smc_gen/r_bsp/mcu/all/r_bsp_machine_timer.o:(.debug_str_offsets)
    171c     171c        0     1                 $d
    1724     1724        0     1                 .L0 
    1734     1734       30     1         ./src/smc_gen/r_bsp/board/generic_r9a02g021/hdwinit.o:(.debug_str_offsets)
    1734     1734        0     1                 $d
    173c     173c        0     1                 .L0 
    1764     1764      284     1         ./src/smc_gen/r_bsp/board/generic_r9a02g021/r_bsp_init.o:(.debug_str_offsets)
    1764     1764        0     1                 $d
    176c     176c        0     1                 .L0 
    19e8     19e8       a0     1         ./src/smc_gen/general/r_cg_inthandler.o:(.debug_str_offsets)
    19e8     19e8        0     1                 $d
    19f0     19f0        0     1                 .L0 
    1a88     1a88       54     1         ./src/smc_gen/general/r_cg_systeminit.o:(.debug_str_offsets)
    1a88     1a88        0     1                 $d
    1a90     1a90        0     1                 .L0 
    1adc     1adc       68     1         ./src/smc_gen/general/r_cg_vect_table.o:(.debug_str_offsets)
    1adc     1adc        0     1                 $d
    1ae4     1ae4        0     1                 .L0 
    1b44     1b44       1c     1         ./src/smc_gen/general/r_smc_cgc.o:(.debug_str_offsets)
    1b44     1b44        0     1                 $d
    1b4c     1b4c        0     1                 .L0 
    1b60     1b60       18     1         ./src/smc_gen/general/r_smc_cgc_user.o:(.debug_str_offsets)
    1b60     1b60        0     1                 $d
    1b68     1b68        0     1                 .L0 
    1b78     1b78       18     1         ./src/smc_gen/general/r_smc_interrupt.o:(.debug_str_offsets)
    1b78     1b78        0     1                 $d
    1b80     1b80        0     1                 .L0 
    1b90     1b90      98c     1         ./src/smc_gen/Config_PORT/Config_PORT.o:(.debug_str_offsets)
    1b90     1b90        0     1                 $d
    1b98     1b98        0     1                 .L0 
    251c     251c       18     1         ./src/smc_gen/Config_PORT/Config_PORT_user.o:(.debug_str_offsets)
    251c     251c        0     1                 $d
    2524     2524        0     1                 .L0 
    2534     2534      f48     1         ./src/smc_gen/Config_ICU/Config_ICU.o:(.debug_str_offsets)
    2534     2534        0     1                 $d
    253c     253c        0     1                 .L0 
    347c     347c      23c     1         ./src/smc_gen/Config_ICU/Config_ICU_user.o:(.debug_str_offsets)
    347c     347c        0     1                 $d
    3484     3484        0     1                 .L0 
    36b8     36b8      124     1         ./src/heap_4.o:(.debug_str_offsets)
    36b8     36b8        0     1                 $d
    36c0     36c0        0     1                 .L0 
    37dc     37dc       8c     1         ./src/list.o:(.debug_str_offsets)
    37dc     37dc        0     1                 $d
    37e4     37e4        0     1                 .L0 
    3868     3868      394     1         ./src/main.o:(.debug_str_offsets)
    3868     3868        0     1                 $d
    3870     3870        0     1                 .L0 
    3bfc     3bfc       94     1         ./src/port.o:(.debug_str_offsets)
    3bfc     3bfc        0     1                 $d
    3c04     3c04        0     1                 .L0 
    3c90     3c90      1fc     1         ./src/queue.o:(.debug_str_offsets)
    3c90     3c90        0     1                 $d
    3c98     3c98        0     1                 .L0 
    3e8c     3e8c      320     1         ./src/tasks.o:(.debug_str_offsets)
    3e8c     3e8c        0     1                 $d
    3e94     3e94        0     1                 .L0 
    41ac     41ac      21c     1         ./src/timers.o:(.debug_str_offsets)
    41ac     41ac        0     1                 $d
    41b4     41b4        0     1                 .L0 
       0        0     5f51     1 .debug_str
       0        0     5f51     1         <internal>:(.debug_str)
       0        0      81c     1 .debug_addr
       0        0        c     1         ./src/smc_gen/r_pincfg/Pin.o:(.debug_addr)
       0        0        0     1                 $d
       8        8        0     1                 .L0 
       c        c       48     1         ./src/smc_gen/r_bsp/mcu/r9a02g021/mcu_clocks.o:(.debug_addr)
       c        c        0     1                 $d
      14       14        0     1                 .L0 
      54       54       30     1         ./src/smc_gen/r_bsp/mcu/r9a02g021/mcu_option_settings.o:(.debug_addr)
      54       54        0     1                 $d
      5c       5c        0     1                 .L0 
      84       84       38     1         ./src/smc_gen/r_bsp/mcu/all/r_bsp_common.o:(.debug_addr)
      84       84        0     1                 $d
      8c       8c        0     1                 .L0 
      bc       bc        c     1         ./src/smc_gen/r_bsp/mcu/all/r_bsp_machine_timer.o:(.debug_addr)
      bc       bc        0     1                 $d
      c4       c4        0     1                 .L0 
      c8       c8       20     1         ./src/smc_gen/r_bsp/board/generic_r9a02g021/hdwinit.o:(.debug_addr)
      c8       c8        0     1                 $d
      d0       d0        0     1                 .L0 
      e8       e8       14     1         ./src/smc_gen/r_bsp/board/generic_r9a02g021/r_bsp_init.o:(.debug_addr)
      e8       e8        0     1                 $d
      f0       f0        0     1                 .L0 
      fc       fc       94     1         ./src/smc_gen/general/r_cg_inthandler.o:(.debug_addr)
      fc       fc        0     1                 $d
     104      104        0     1                 .L0 
     190      190       20     1         ./src/smc_gen/general/r_cg_systeminit.o:(.debug_addr)
     190      190        0     1                 $d
     198      198        0     1                 .L0 
     1b0      1b0       1c     1         ./src/smc_gen/general/r_cg_vect_table.o:(.debug_addr)
     1b0      1b0        0     1                 $d
     1b8      1b8        0     1                 .L0 
     1cc      1cc        c     1         ./src/smc_gen/general/r_smc_cgc.o:(.debug_addr)
     1cc      1cc        0     1                 $d
     1d4      1d4        0     1                 .L0 
     1d8      1d8        c     1         ./src/smc_gen/general/r_smc_cgc_user.o:(.debug_addr)
     1d8      1d8        0     1                 $d
     1e0      1e0        0     1                 .L0 
     1e4      1e4        c     1         ./src/smc_gen/general/r_smc_interrupt.o:(.debug_addr)
     1e4      1e4        0     1                 $d
     1ec      1ec        0     1                 .L0 
     1f0      1f0       18     1         ./src/smc_gen/Config_PORT/Config_PORT.o:(.debug_addr)
     1f0      1f0        0     1                 $d
     1f8      1f8        0     1                 .L0 
     208      208        c     1         ./src/smc_gen/Config_PORT/Config_PORT_user.o:(.debug_addr)
     208      208        0     1                 $d
     210      210        0     1                 .L0 
     214      214       18     1         ./src/smc_gen/Config_ICU/Config_ICU.o:(.debug_addr)
     214      214        0     1                 $d
     21c      21c        0     1                 .L0 
     22c      22c       14     1         ./src/smc_gen/Config_ICU/Config_ICU_user.o:(.debug_addr)
     22c      22c        0     1                 $d
     234      234        0     1                 .L0 
     240      240       74     1         ./src/heap_4.o:(.debug_addr)
     240      240        0     1                 $d
     248      248        0     1                 .L0 
     2b4      2b4       1c     1         ./src/list.o:(.debug_addr)
     2b4      2b4        0     1                 $d
     2bc      2bc        0     1                 .L0 
     2d0      2d0       44     1         ./src/main.o:(.debug_addr)
     2d0      2d0        0     1                 $d
     2d8      2d8        0     1                 .L0 
     314      314       40     1         ./src/port.o:(.debug_addr)
     314      314        0     1                 $d
     31c      31c        0     1                 .L0 
     354      354      188     1         ./src/queue.o:(.debug_addr)
     354      354        0     1                 $d
     35c      35c        0     1                 .L0 
     4dc      4dc      22c     1         ./src/tasks.o:(.debug_addr)
     4dc      4dc        0     1                 $d
     4e4      4e4        0     1                 .L0 
     708      708      114     1         ./src/timers.o:(.debug_addr)
     708      708        0     1                 $d
     710      710        0     1                 .L0 
       0        0       5b     1 .comment
       0        0       5b     1         <internal>:(.comment)
       0        0       49     1 .riscv.attributes
       0        0       49     1         <internal>:(.riscv.attributes)
       0        0      e58     4 .debug_frame
       0        0       24     4         ./src/smc_gen/r_pincfg/Pin.o:(.debug_frame)
       0        0        0     1                 .L0 
       0        0        0     1                 $d
      24       24       64     4         ./src/smc_gen/r_bsp/mcu/r9a02g021/mcu_clocks.o:(.debug_frame)
      24       24        0     1                 .L0 
      24       24        0     1                 $d
      88       88       90     4         ./src/smc_gen/r_bsp/mcu/all/r_bsp_common.o:(.debug_frame)
      88       88        0     1                 .L0 
      88       88        0     1                 $d
     118      118       24     4         ./src/smc_gen/r_bsp/mcu/all/r_bsp_machine_timer.o:(.debug_frame)
     118      118        0     1                 .L0 
     118      118        0     1                 $d
     13c      13c       2c     4         ./src/smc_gen/r_bsp/board/generic_r9a02g021/hdwinit.o:(.debug_frame)
     13c      13c        0     1                 .L0 
     13c      13c        0     1                 $d
     168      168       3c     4         ./src/smc_gen/r_bsp/board/generic_r9a02g021/r_bsp_init.o:(.debug_frame)
     168      168        0     1                 .L0 
     168      168        0     1                 $d
     1a4      1a4      244     4         ./src/smc_gen/general/r_cg_inthandler.o:(.debug_frame)
     1a4      1a4        0     1                 .L0 
     1a4      1a4        0     1                 $d
     3e8      3e8       2c     4         ./src/smc_gen/general/r_cg_systeminit.o:(.debug_frame)
     3e8      3e8        0     1                 .L0 
     3e8      3e8        0     1                 $d
     414      414       44     4         ./src/smc_gen/general/r_cg_vect_table.o:(.debug_frame)
     414      414        0     1                 .L0 
     414      414        0     1                 $d
     458      458       24     4         ./src/smc_gen/general/r_smc_cgc.o:(.debug_frame)
     458      458        0     1                 .L0 
     458      458        0     1                 $d
     47c      47c       24     4         ./src/smc_gen/general/r_smc_cgc_user.o:(.debug_frame)
     47c      47c        0     1                 .L0 
     47c      47c        0     1                 $d
     4a0      4a0       24     4         ./src/smc_gen/general/r_smc_interrupt.o:(.debug_frame)
     4a0      4a0        0     1                 .L0 
     4a0      4a0        0     1                 $d
     4c4      4c4       44     4         ./src/smc_gen/Config_PORT/Config_PORT.o:(.debug_frame)
     4c4      4c4        0     1                 .L0 
     4c4      4c4        0     1                 $d
     508      508       24     4         ./src/smc_gen/Config_PORT/Config_PORT_user.o:(.debug_frame)
     508      508        0     1                 .L0 
     508      508        0     1                 $d
     52c      52c       44     4         ./src/smc_gen/Config_ICU/Config_ICU.o:(.debug_frame)
     52c      52c        0     1                 .L0 
     52c      52c        0     1                 $d
     570      570       44     4         ./src/smc_gen/Config_ICU/Config_ICU_user.o:(.debug_frame)
     570      570        0     1                 .L0 
     570      570        0     1                 $d
     5b4      5b4       d4     4         ./src/heap_4.o:(.debug_frame)
     5b4      5b4        0     1                 .L0 
     5b4      5b4        0     1                 $d
     688      688       64     4         ./src/list.o:(.debug_frame)
     688      688        0     1                 .L0 
     688      688        0     1                 $d
     6ec      6ec       84     4         ./src/main.o:(.debug_frame)
     6ec      6ec        0     1                 .L0 
     6ec      6ec        0     1                 $d
     770      770       50     4         ./src/port.o:(.debug_frame)
     770      770        0     1                 .L0 
     770      770        0     1                 $d
     7c0      7c0      218     4         ./src/queue.o:(.debug_frame)
     7c0      7c0        0     1                 .L0 
     7c0      7c0        0     1                 $d
     9d8      9d8      2f4     4         ./src/tasks.o:(.debug_frame)
     9d8      9d8        0     1                 .L0 
     9d8      9d8        0     1                 $d
     ccc      ccc      18c     4         ./src/timers.o:(.debug_frame)
     ccc      ccc        0     1                 .L0 
     ccc      ccc        0     1                 $d
       0        0     71d3     1 .debug_line
       0        0       b5     1         ./src/smc_gen/r_pincfg/Pin.o:(.debug_line)
       0        0        0     1                 .Lline_table_start0
       0        0        0     1                 $d
      b5       b5      399     1         ./src/smc_gen/r_bsp/mcu/r9a02g021/mcu_clocks.o:(.debug_line)
      b5       b5        0     1                 .Lline_table_start0
      b5       b5        0     1                 $d
     44e      44e       71     1         ./src/smc_gen/r_bsp/mcu/r9a02g021/mcu_option_settings.o:(.debug_line)
     44e      44e        0     1                 .Lline_table_start0
     44e      44e        0     1                 $d
     4bf      4bf       61     1         ./src/smc_gen/r_bsp/mcu/all/exit.o:(.debug_line)
     4bf      4bf        0     1                 .Lline_table_start0
     4bf      4bf        0     1                 $d
     520      520       a3     1         ./src/smc_gen/r_bsp/mcu/all/machine_timer_aux.o:(.debug_line)
     520      520        0     1                 .Lline_table_start0
     520      520        0     1                 $d
     5c3      5c3      522     1         ./src/smc_gen/r_bsp/mcu/all/r_bsp_common.o:(.debug_line)
     5c3      5c3        0     1                 .Lline_table_start0
     5c3      5c3        0     1                 $d
     ae5      ae5       4f     1         ./src/smc_gen/r_bsp/mcu/all/r_bsp_common_llvm.o:(.debug_line)
     ae5      ae5        0     1                 .Lline_table_start0
     ae5      ae5        0     1                 $d
     b34      b34       59     1         ./src/smc_gen/r_bsp/mcu/all/r_bsp_machine_timer.o:(.debug_line)
     b34      b34        0     1                 .Lline_table_start0
     b34      b34        0     1                 $d
     b8d      b8d       f1     1         ./src/smc_gen/r_bsp/mcu/all/start.o:(.debug_line)
     b8d      b8d        0     1                 .Lline_table_start0
     b8d      b8d        0     1                 $d
     c7e      c7e       c5     1         ./src/smc_gen/r_bsp/board/generic_r9a02g021/hdwinit.o:(.debug_line)
     c7e      c7e        0     1                 .Lline_table_start0
     c7e      c7e        0     1                 $d
     d43      d43      101     1         ./src/smc_gen/r_bsp/board/generic_r9a02g021/r_bsp_init.o:(.debug_line)
     d43      d43        0     1                 .Lline_table_start0
     d43      d43        0     1                 $d
     e44      e44      342     1         ./src/smc_gen/general/r_cg_inthandler.o:(.debug_line)
     e44      e44        0     1                 .Lline_table_start0
     e44      e44        0     1                 $d
    1186     1186       e6     1         ./src/smc_gen/general/r_cg_systeminit.o:(.debug_line)
    1186     1186        0     1                 .Lline_table_start0
    1186     1186        0     1                 $d
    126c     126c       f4     1         ./src/smc_gen/general/r_cg_vect_table.o:(.debug_line)
    126c     126c        0     1                 .Lline_table_start0
    126c     126c        0     1                 $d
    1360     1360       71     1         ./src/smc_gen/general/r_smc_cgc.o:(.debug_line)
    1360     1360        0     1                 .Lline_table_start0
    1360     1360        0     1                 $d
    13d1     13d1       58     1         ./src/smc_gen/general/r_smc_cgc_user.o:(.debug_line)
    13d1     13d1        0     1                 .Lline_table_start0
    13d1     13d1        0     1                 $d
    1429     1429       58     1         ./src/smc_gen/general/r_smc_interrupt.o:(.debug_line)
    1429     1429        0     1                 .Lline_table_start0
    1429     1429        0     1                 $d
    1481     1481      6ac     1         ./src/smc_gen/Config_PORT/Config_PORT.o:(.debug_line)
    1481     1481        0     1                 .Lline_table_start0
    1481     1481        0     1                 $d
    1b2d     1b2d       58     1         ./src/smc_gen/Config_PORT/Config_PORT_user.o:(.debug_line)
    1b2d     1b2d        0     1                 .Lline_table_start0
    1b2d     1b2d        0     1                 $d
    1b85     1b85      164     1         ./src/smc_gen/Config_ICU/Config_ICU.o:(.debug_line)
    1b85     1b85        0     1                 .Lline_table_start0
    1b85     1b85        0     1                 $d
    1ce9     1ce9       ec     1         ./src/smc_gen/Config_ICU/Config_ICU_user.o:(.debug_line)
    1ce9     1ce9        0     1                 .Lline_table_start0
    1ce9     1ce9        0     1                 $d
    1dd5     1dd5      6fa     1         ./src/heap_4.o:(.debug_line)
    1dd5     1dd5        0     1                 .Lline_table_start0
    1dd5     1dd5        0     1                 $d
    24cf     24cf      2be     1         ./src/list.o:(.debug_line)
    24cf     24cf        0     1                 .Lline_table_start0
    24cf     24cf        0     1                 $d
    278d     278d      1f7     1         ./src/main.o:(.debug_line)
    278d     278d        0     1                 .Lline_table_start0
    278d     278d        0     1                 $d
    2984     2984      18f     1         ./src/port.o:(.debug_line)
    2984     2984        0     1                 .Lline_table_start0
    2984     2984        0     1                 $d
    2b13     2b13      bac     1         ./src/portASM.o:(.debug_line)
    2b13     2b13        0     1                 .Lline_table_start0
    2b13     2b13        0     1                 $d
    36bf     36bf     158c     1         ./src/queue.o:(.debug_line)
    36bf     36bf        0     1                 .Lline_table_start0
    36bf     36bf        0     1                 $d
    4c4b     4c4b     1aa6     1         ./src/tasks.o:(.debug_line)
    4c4b     4c4b        0     1                 .Lline_table_start0
    4c4b     4c4b        0     1                 $d
    66f1     66f1      ae2     1         ./src/timers.o:(.debug_line)
    66f1     66f1        0     1                 .Lline_table_start0
    66f1     66f1        0     1                 $d
       0        0      aa6     1 .debug_line_str
       0        0      aa6     1         <internal>:(.debug_line_str)
       0        0     1d95     1 .debug_loclists
       0        0       33     1         ./src/smc_gen/r_bsp/mcu/r9a02g021/mcu_clocks.o:(.debug_loclists)
       0        0        0     1                 $d
       c        c        0     1                 .L0 
      33       33       a0     1         ./src/smc_gen/r_bsp/mcu/all/r_bsp_common.o:(.debug_loclists)
      33       33        0     1                 $d
      3f       3f        0     1                 .L0 
      d3       d3      3c9     1         ./src/smc_gen/Config_PORT/Config_PORT.o:(.debug_loclists)
      d3       d3        0     1                 $d
      df       df        0     1                 .L0 
     49c      49c      22a     1         ./src/heap_4.o:(.debug_loclists)
     49c      49c        0     1                 $d
     4a8      4a8        0     1                 .L0 
     6c6      6c6       5f     1         ./src/list.o:(.debug_loclists)
     6c6      6c6        0     1                 $d
     6d2      6d2        0     1                 .L0 
     725      725       24     1         ./src/port.o:(.debug_loclists)
     725      725        0     1                 $d
     731      731        0     1                 .L0 
     749      749      74e     1         ./src/queue.o:(.debug_loclists)
     749      749        0     1                 $d
     755      755        0     1                 .L0 
     e97      e97      a5d     1         ./src/tasks.o:(.debug_loclists)
     e97      e97        0     1                 $d
     ea3      ea3        0     1                 .L0 
    18f4     18f4      4a1     1         ./src/timers.o:(.debug_loclists)
    18f4     18f4        0     1                 $d
    1900     1900        0     1                 .L0 
       0        0      537     1 .debug_rnglists
       0        0       1e     1         ./src/smc_gen/r_bsp/mcu/r9a02g021/mcu_clocks.o:(.debug_rnglists)
       0        0        0     1                 $d
       c        c        0     1                 .L0 
      1e       1e       29     1         ./src/smc_gen/r_bsp/mcu/all/r_bsp_common.o:(.debug_rnglists)
      1e       1e        0     1                 $d
      2a       2a        0     1                 .L0 
      47       47       17     1         ./src/smc_gen/r_bsp/board/generic_r9a02g021/r_bsp_init.o:(.debug_rnglists)
      47       47        0     1                 $d
      53       53        0     1                 .L0 
      5e       5e       7a     1         ./src/smc_gen/general/r_cg_inthandler.o:(.debug_rnglists)
      5e       5e        0     1                 $d
      6a       6a        0     1                 .L0 
      d8       d8       1a     1         ./src/smc_gen/general/r_cg_vect_table.o:(.debug_rnglists)
      d8       d8        0     1                 $d
      e4       e4        0     1                 .L0 
      f2       f2       91     1         ./src/smc_gen/Config_PORT/Config_PORT.o:(.debug_rnglists)
      f2       f2        0     1                 $d
      fe       fe        0     1                 .L0 
     183      183       1a     1         ./src/smc_gen/Config_ICU/Config_ICU.o:(.debug_rnglists)
     183      183        0     1                 $d
     18f      18f        0     1                 .L0 
     19d      19d       17     1         ./src/smc_gen/Config_ICU/Config_ICU_user.o:(.debug_rnglists)
     19d      19d        0     1                 $d
     1a9      1a9        0     1                 .L0 
     1b4      1b4       2f     1         ./src/heap_4.o:(.debug_rnglists)
     1b4      1b4        0     1                 $d
     1c0      1c0        0     1                 .L0 
     1e3      1e3       20     1         ./src/list.o:(.debug_rnglists)
     1e3      1e3        0     1                 $d
     1ef      1ef        0     1                 .L0 
     203      203       23     1         ./src/main.o:(.debug_rnglists)
     203      203        0     1                 $d
     20f      20f        0     1                 .L0 
     226      226       1a     1         ./src/port.o:(.debug_rnglists)
     226      226        0     1                 $d
     232      232        0     1                 .L0 
     240      240       30     1         ./src/portASM.o:(.debug_rnglists)
     240      240        0     1                 $d
     24c      24c        0     1                 .L0 
     270      270      105     1         ./src/queue.o:(.debug_rnglists)
     270      270        0     1                 $d
     27c      27c        0     1                 .L0 
     375      375       f8     1         ./src/tasks.o:(.debug_rnglists)
     375      375        0     1                 $d
     381      381        0     1                 .L0 
     46d      46d       ca     1         ./src/timers.o:(.debug_rnglists)
     46d      46d        0     1                 $d
     479      479        0     1                 .L0 
       0        0       c0     1 .debug_aranges
       0        0       20     1         ./src/smc_gen/r_bsp/mcu/all/exit.o:(.debug_aranges)
       0        0        0     1                 $d
      20       20       20     1         ./src/smc_gen/r_bsp/mcu/all/machine_timer_aux.o:(.debug_aranges)
      20       20        0     1                 $d
      40       40       20     1         ./src/smc_gen/r_bsp/mcu/all/r_bsp_common_llvm.o:(.debug_aranges)
      40       40        0     1                 $d
      60       60       20     1         ./src/smc_gen/r_bsp/mcu/all/start.o:(.debug_aranges)
      60       60        0     1                 $d
      80       80       40     1         ./src/portASM.o:(.debug_aranges)
      80       80        0     1                 $d
       0        0     2d20     4 .symtab
       0        0     2d20     4         <internal>:(.symtab)
       0        0      1a2     1 .shstrtab
       0        0      1a2     1         <internal>:(.shstrtab)
       0        0     14d5     1 .strtab
       0        0     14d5     1         <internal>:(.strtab)

Cross Reference Table

Symbol                                            File
mcu_clock_setup                                   ./src/smc_gen/r_bsp/mcu/r9a02g021/mcu_clocks.o
                                                  ./src/smc_gen/r_bsp/board/generic_r9a02g021/r_bsp_init.o
R_BSP_SoftwareDelay                               ./src/smc_gen/r_bsp/mcu/all/r_bsp_common.o
                                                  ./src/smc_gen/r_bsp/mcu/r9a02g021/mcu_clocks.o
get_iclk_freq_hz                                  ./src/smc_gen/r_bsp/mcu/r9a02g021/mcu_clocks.o
                                                  ./src/smc_gen/r_bsp/mcu/all/r_bsp_common.o
__UIDS3reg                                        ./src/smc_gen/r_bsp/mcu/r9a02g021/mcu_option_settings.o
__UIDS2reg                                        ./src/smc_gen/r_bsp/mcu/r9a02g021/mcu_option_settings.o
__UIDS1reg                                        ./src/smc_gen/r_bsp/mcu/r9a02g021/mcu_option_settings.o
__UIDS0reg                                        ./src/smc_gen/r_bsp/mcu/r9a02g021/mcu_option_settings.o
__AWSreg                                          ./src/smc_gen/r_bsp/mcu/r9a02g021/mcu_option_settings.o
__SECSreg                                         ./src/smc_gen/r_bsp/mcu/r9a02g021/mcu_option_settings.o
Option_OSIS                                       ./src/smc_gen/r_bsp/mcu/r9a02g021/mcu_option_settings.o
Option_FPR                                        ./src/smc_gen/r_bsp/mcu/r9a02g021/mcu_option_settings.o
__OFS1reg                                         ./src/smc_gen/r_bsp/mcu/r9a02g021/mcu_option_settings.o
__OFS0reg                                         ./src/smc_gen/r_bsp/mcu/r9a02g021/mcu_option_settings.o
_exit                                             ./src/smc_gen/r_bsp/mcu/all/exit.o
                                                  /home/user0/e2_studio/workspace/freertos_port/HardwareDebug/libfreertos_port.a(libc_a-exit.o)
_delay_wait                                       ./src/smc_gen/r_bsp/mcu/all/r_bsp_common_llvm.o
                                                  ./src/smc_gen/r_bsp/mcu/all/r_bsp_common.o
R_BSP_RegisterProtectEnable                       ./src/smc_gen/r_bsp/mcu/all/r_bsp_common.o
                                                  ./src/smc_gen/general/r_cg_systeminit.o
R_BSP_RegisterProtectDisable                      ./src/smc_gen/r_bsp/mcu/all/r_bsp_common.o
                                                  ./src/smc_gen/general/r_cg_systeminit.o
bsp_register_protect_open                         ./src/smc_gen/r_bsp/mcu/all/r_bsp_common.o
                                                  ./src/smc_gen/r_bsp/board/generic_r9a02g021/hdwinit.o
machine_timer_create                              ./src/smc_gen/r_bsp/mcu/all/r_bsp_machine_timer.o
                                                  ./src/smc_gen/r_bsp/board/generic_r9a02g021/hdwinit.o
_PowerON_Reset                                    ./src/smc_gen/r_bsp/mcu/all/start.o
__global_pointer$                                 <internal>
                                                  ./src/smc_gen/r_bsp/mcu/all/start.o
__stack                                           /home/user0/e2_studio/workspace/freertos_port/generate/linker_script.ld:194
                                                  ./src/smc_gen/r_bsp/mcu/all/start.o
initialize_vect                                   ./src/smc_gen/general/r_cg_vect_table.o
                                                  ./src/smc_gen/r_bsp/mcu/all/start.o
bsp_init_system                                   ./src/smc_gen/r_bsp/board/generic_r9a02g021/r_bsp_init.o
                                                  ./src/smc_gen/r_bsp/mcu/all/start.o
__bss                                             /home/user0/e2_studio/workspace/freertos_port/generate/linker_script.ld:167
                                                  ./src/smc_gen/r_bsp/mcu/all/start.o
__ebss                                            /home/user0/e2_studio/workspace/freertos_port/generate/linker_script.ld:176
                                                  ./src/smc_gen/r_bsp/mcu/all/start.o
memset                                            /home/user0/e2_studio/workspace/freertos_port/HardwareDebug/libfreertos_port.a(libc_a-memset.o)
                                                  ./src/smc_gen/r_bsp/mcu/all/start.o
                                                  ./src/heap_4.o
                                                  ./src/tasks.o
                                                  /home/user0/e2_studio/workspace/freertos_port/HardwareDebug/libfreertos_port.a(libc_a-findfp.o)
__datastart                                       /home/user0/e2_studio/workspace/freertos_port/generate/linker_script.ld:135
                                                  ./src/smc_gen/r_bsp/mcu/all/start.o
__romdatastart                                    /home/user0/e2_studio/workspace/freertos_port/generate/linker_script.ld:145
                                                  ./src/smc_gen/r_bsp/mcu/all/start.o
__romdatacopysize                                 /home/user0/e2_studio/workspace/freertos_port/generate/linker_script.ld:146
                                                  ./src/smc_gen/r_bsp/mcu/all/start.o
memcpy                                            /home/user0/e2_studio/workspace/freertos_port/HardwareDebug/libfreertos_port.a(libc_a-memcpy.o)
                                                  ./src/smc_gen/r_bsp/mcu/all/start.o
                                                  ./src/queue.o
__dataeccramstart                                 /home/user0/e2_studio/workspace/freertos_port/generate/linker_script.ld:152
                                                  ./src/smc_gen/r_bsp/mcu/all/start.o
__romdataeccramstart                              /home/user0/e2_studio/workspace/freertos_port/generate/linker_script.ld:160
                                                  ./src/smc_gen/r_bsp/mcu/all/start.o
__romdataeccramcopysize                           /home/user0/e2_studio/workspace/freertos_port/generate/linker_script.ld:161
                                                  ./src/smc_gen/r_bsp/mcu/all/start.o
bsp_init_hardware                                 ./src/smc_gen/r_bsp/board/generic_r9a02g021/r_bsp_init.o
                                                  ./src/smc_gen/r_bsp/mcu/all/start.o
__libc_init_array                                 /home/user0/e2_studio/workspace/freertos_port/HardwareDebug/libfreertos_port.a(libc_a-init.o)
                                                  ./src/smc_gen/r_bsp/mcu/all/start.o
main                                              ./src/main.o
                                                  ./src/smc_gen/r_bsp/mcu/all/start.o
exit                                              /home/user0/e2_studio/workspace/freertos_port/HardwareDebug/libfreertos_port.a(libc_a-exit.o)
                                                  ./src/smc_gen/r_bsp/mcu/all/start.o
hdwinit                                           ./src/smc_gen/r_bsp/board/generic_r9a02g021/hdwinit.o
                                                  ./src/smc_gen/r_bsp/board/generic_r9a02g021/r_bsp_init.o
R_Systeminit                                      ./src/smc_gen/general/r_cg_systeminit.o
                                                  ./src/smc_gen/r_bsp/board/generic_r9a02g021/hdwinit.o
INT_ACLINT_MSIP                                   ./src/smc_gen/general/r_cg_inthandler.o
                                                  ./src/smc_gen/general/r_cg_vect_table.o
INT_ACLINT_MTIP                                   ./src/smc_gen/general/r_cg_inthandler.o
                                                  ./src/smc_gen/general/r_cg_vect_table.o
INT_IELSR0                                        ./src/smc_gen/general/r_cg_inthandler.o
                                                  ./src/smc_gen/general/r_cg_vect_table.o
INT_IELSR1                                        ./src/smc_gen/general/r_cg_inthandler.o
                                                  ./src/smc_gen/general/r_cg_vect_table.o
INT_IELSR2                                        ./src/smc_gen/general/r_cg_inthandler.o
                                                  ./src/smc_gen/general/r_cg_vect_table.o
INT_IELSR3                                        ./src/smc_gen/general/r_cg_inthandler.o
                                                  ./src/smc_gen/general/r_cg_vect_table.o
INT_IELSR5                                        ./src/smc_gen/general/r_cg_inthandler.o
                                                  ./src/smc_gen/general/r_cg_vect_table.o
INT_IELSR6                                        ./src/smc_gen/general/r_cg_inthandler.o
                                                  ./src/smc_gen/general/r_cg_vect_table.o
INT_IELSR7                                        ./src/smc_gen/general/r_cg_inthandler.o
                                                  ./src/smc_gen/general/r_cg_vect_table.o
INT_IELSR8                                        ./src/smc_gen/general/r_cg_inthandler.o
                                                  ./src/smc_gen/general/r_cg_vect_table.o
INT_IELSR9                                        ./src/smc_gen/general/r_cg_inthandler.o
                                                  ./src/smc_gen/general/r_cg_vect_table.o
INT_IELSR10                                       ./src/smc_gen/general/r_cg_inthandler.o
                                                  ./src/smc_gen/general/r_cg_vect_table.o
INT_IELSR11                                       ./src/smc_gen/general/r_cg_inthandler.o
                                                  ./src/smc_gen/general/r_cg_vect_table.o
INT_IELSR12                                       ./src/smc_gen/general/r_cg_inthandler.o
                                                  ./src/smc_gen/general/r_cg_vect_table.o
INT_IELSR13                                       ./src/smc_gen/general/r_cg_inthandler.o
                                                  ./src/smc_gen/general/r_cg_vect_table.o
INT_IELSR14                                       ./src/smc_gen/general/r_cg_inthandler.o
                                                  ./src/smc_gen/general/r_cg_vect_table.o
INT_IELSR15                                       ./src/smc_gen/general/r_cg_inthandler.o
                                                  ./src/smc_gen/general/r_cg_vect_table.o
INT_IELSR16                                       ./src/smc_gen/general/r_cg_inthandler.o
                                                  ./src/smc_gen/general/r_cg_vect_table.o
INT_IELSR17                                       ./src/smc_gen/general/r_cg_inthandler.o
                                                  ./src/smc_gen/general/r_cg_vect_table.o
INT_IELSR18                                       ./src/smc_gen/general/r_cg_inthandler.o
                                                  ./src/smc_gen/general/r_cg_vect_table.o
INT_IELSR19                                       ./src/smc_gen/general/r_cg_inthandler.o
                                                  ./src/smc_gen/general/r_cg_vect_table.o
INT_IELSR20                                       ./src/smc_gen/general/r_cg_inthandler.o
                                                  ./src/smc_gen/general/r_cg_vect_table.o
INT_IELSR21                                       ./src/smc_gen/general/r_cg_inthandler.o
                                                  ./src/smc_gen/general/r_cg_vect_table.o
INT_IELSR22                                       ./src/smc_gen/general/r_cg_inthandler.o
                                                  ./src/smc_gen/general/r_cg_vect_table.o
INT_IELSR23                                       ./src/smc_gen/general/r_cg_inthandler.o
                                                  ./src/smc_gen/general/r_cg_vect_table.o
INT_IELSR24                                       ./src/smc_gen/general/r_cg_inthandler.o
                                                  ./src/smc_gen/general/r_cg_vect_table.o
INT_IELSR25                                       ./src/smc_gen/general/r_cg_inthandler.o
                                                  ./src/smc_gen/general/r_cg_vect_table.o
INT_IELSR26                                       ./src/smc_gen/general/r_cg_inthandler.o
                                                  ./src/smc_gen/general/r_cg_vect_table.o
INT_IELSR27                                       ./src/smc_gen/general/r_cg_inthandler.o
                                                  ./src/smc_gen/general/r_cg_vect_table.o
INT_IELSR28                                       ./src/smc_gen/general/r_cg_inthandler.o
                                                  ./src/smc_gen/general/r_cg_vect_table.o
INT_IELSR29                                       ./src/smc_gen/general/r_cg_inthandler.o
                                                  ./src/smc_gen/general/r_cg_vect_table.o
INT_IELSR30                                       ./src/smc_gen/general/r_cg_inthandler.o
                                                  ./src/smc_gen/general/r_cg_vect_table.o
INT_IELSR31                                       ./src/smc_gen/general/r_cg_inthandler.o
                                                  ./src/smc_gen/general/r_cg_vect_table.o
INT_DUMMY                                         ./src/smc_gen/general/r_cg_inthandler.o
                                                  ./src/smc_gen/general/r_cg_vect_table.o
R_CGC_Create                                      ./src/smc_gen/general/r_smc_cgc.o
                                                  ./src/smc_gen/general/r_cg_systeminit.o
R_Config_PORT_Create                              ./src/smc_gen/Config_PORT/Config_PORT.o
                                                  ./src/smc_gen/general/r_cg_systeminit.o
R_Config_ICU_Create                               ./src/smc_gen/Config_ICU/Config_ICU.o
                                                  ./src/smc_gen/general/r_cg_systeminit.o
freertos_risc_v_trap_handler                      ./src/portASM.o
                                                  ./src/smc_gen/general/r_cg_vect_table.o
gp_Vectors                                        ./src/smc_gen/general/r_cg_vect_table.o
r_Config_ICU_irq4_interrupt                       ./src/smc_gen/Config_ICU/Config_ICU_user.o
                                                  ./src/smc_gen/general/r_cg_vect_table.o
gp_ExceptVectors                                  ./src/smc_gen/general/r_cg_vect_table.o
R_CGC_Create_UserInit                             ./src/smc_gen/general/r_smc_cgc_user.o
                                                  ./src/smc_gen/general/r_smc_cgc.o
R_Config_PORT_Create_UserInit                     ./src/smc_gen/Config_PORT/Config_PORT_user.o
                                                  ./src/smc_gen/Config_PORT/Config_PORT.o
R_Config_ICU_Create_UserInit                      ./src/smc_gen/Config_ICU/Config_ICU_user.o
                                                  ./src/smc_gen/Config_ICU/Config_ICU.o
R_Config_ICU_IRQ4_Start                           ./src/smc_gen/Config_ICU/Config_ICU.o
                                                  ./src/main.o
blinkDelay                                        ./src/smc_gen/Config_ICU/Config_ICU_user.o
pvPortMalloc                                      ./src/heap_4.o
                                                  ./src/queue.o
                                                  ./src/tasks.o
                                                  ./src/timers.o
vTaskSuspendAll                                   ./src/tasks.o
                                                  ./src/heap_4.o
                                                  ./src/queue.o
                                                  ./src/timers.o
xTaskResumeAll                                    ./src/tasks.o
                                                  ./src/heap_4.o
                                                  ./src/queue.o
                                                  ./src/timers.o
vApplicationMallocFailedHook                      ./src/main.o
                                                  ./src/heap_4.o
vPortFree                                         ./src/heap_4.o
                                                  ./src/queue.o
                                                  ./src/tasks.o
                                                  ./src/timers.o
xCriticalNesting                                  ./src/port.o
                                                  ./src/heap_4.o
                                                  ./src/portASM.o
                                                  ./src/queue.o
                                                  ./src/tasks.o
                                                  ./src/timers.o
vListInitialise                                   ./src/list.o
                                                  ./src/queue.o
                                                  ./src/tasks.o
                                                  ./src/timers.o
vListInitialiseItem                               ./src/list.o
                                                  ./src/tasks.o
                                                  ./src/timers.o
vListInsert                                       ./src/list.o
                                                  ./src/tasks.o
                                                  ./src/timers.o
uxListRemove                                      ./src/list.o
                                                  ./src/tasks.o
                                                  ./src/timers.o
xQueueGenericCreate                               ./src/queue.o
                                                  ./src/main.o
                                                  ./src/timers.o
xTaskCreate                                       ./src/tasks.o
                                                  ./src/main.o
                                                  ./src/timers.o
vTaskStartScheduler                               ./src/tasks.o
                                                  ./src/main.o
vTaskDelay                                        ./src/tasks.o
                                                  ./src/main.o
vPortSetupTimerInterrupt                          ./src/port.o
pullMachineTimerCompareRegister                   ./src/port.o
                                                  ./src/portASM.o
ullNextTime                                       ./src/port.o
xPortStartScheduler                               ./src/port.o
                                                  ./src/tasks.o
xPortStartFirstTask                               ./src/portASM.o
                                                  ./src/port.o
xISRStackTop                                      ./src/port.o
                                                  ./src/portASM.o
__freertos_irq_stack_top                          /home/user0/e2_studio/workspace/freertos_port/generate/linker_script.ld:195
                                                  ./src/port.o
pullNextTime                                      ./src/port.o
                                                  ./src/portASM.o
uxTimerIncrementsForOneTick                       ./src/port.o
                                                  ./src/portASM.o
pxCriticalNesting                                 ./src/port.o
                                                  ./src/portASM.o
xTaskReturnAddress                                ./src/port.o
                                                  ./src/portASM.o
pxPortInitialiseStack                             ./src/portASM.o
                                                  ./src/tasks.o
freertos_risc_v_application_exception_handler     ./src/portASM.o
freertos_risc_v_application_interrupt_handler     ./src/portASM.o
pxCurrentTCB                                      ./src/tasks.o
                                                  ./src/portASM.o
vTaskSwitchContext                                ./src/tasks.o
                                                  ./src/portASM.o
xTaskIncrementTick                                ./src/tasks.o
                                                  ./src/portASM.o
xTaskRemoveFromEventList                          ./src/tasks.o
                                                  ./src/queue.o
vTaskInternalSetTimeOutState                      ./src/tasks.o
                                                  ./src/queue.o
xTaskCheckForTimeOut                              ./src/tasks.o
                                                  ./src/queue.o
vTaskPlaceOnEventList                             ./src/tasks.o
                                                  ./src/queue.o
vTaskMissedYield                                  ./src/tasks.o
                                                  ./src/queue.o
xQueueReceive                                     ./src/queue.o
                                                  ./src/timers.o
vQueueWaitForMessageRestricted                    ./src/queue.o
                                                  ./src/timers.o
vTaskPlaceOnEventListRestricted                   ./src/tasks.o
                                                  ./src/queue.o
xTimerCreateTimerTask                             ./src/timers.o
                                                  ./src/tasks.o
xTaskGetTickCount                                 ./src/tasks.o
                                                  ./src/timers.o
__call_exitprocs                                  /home/user0/e2_studio/workspace/freertos_port/HardwareDebug/libfreertos_port.a(libc_a-__call_atexit.o)
                                                  /home/user0/e2_studio/workspace/freertos_port/HardwareDebug/libfreertos_port.a(libc_a-exit.o)
__stdio_exit_handler                              /home/user0/e2_studio/workspace/freertos_port/HardwareDebug/libfreertos_port.a(libc_a-findfp.o)
                                                  /home/user0/e2_studio/workspace/freertos_port/HardwareDebug/libfreertos_port.a(libc_a-exit.o)
__atexit                                          /home/user0/e2_studio/workspace/freertos_port/HardwareDebug/libfreertos_port.a(libc_a-__call_atexit.o)
__preinit_array_start                             /home/user0/e2_studio/workspace/freertos_port/generate/linker_script.ld:78
                                                  /home/user0/e2_studio/workspace/freertos_port/HardwareDebug/libfreertos_port.a(libc_a-init.o)
__preinit_array_end                               /home/user0/e2_studio/workspace/freertos_port/generate/linker_script.ld:80
                                                  /home/user0/e2_studio/workspace/freertos_port/HardwareDebug/libfreertos_port.a(libc_a-init.o)
__init_array_start                                /home/user0/e2_studio/workspace/freertos_port/generate/linker_script.ld:81
                                                  /home/user0/e2_studio/workspace/freertos_port/HardwareDebug/libfreertos_port.a(libc_a-init.o)
__init_array_end                                  /home/user0/e2_studio/workspace/freertos_port/generate/linker_script.ld:84
                                                  /home/user0/e2_studio/workspace/freertos_port/HardwareDebug/libfreertos_port.a(libc_a-init.o)
end                                               /home/user0/e2_studio/workspace/freertos_port/generate/linker_script.ld:177
                                                  /home/user0/custom_installed/e2_studio/toolchains/llvm-19.1.7.202501-riscv-elf/llvm-for-renesas-riscv/bin/../lib/clang-runtimes/riscv32-unknown-elf/rv32imaczba_zbb_zbs/ilp32/lib/libnosys.a(sbrk.o)
